

Microchip Technology PIC LITE Macro Assembler V1.42 build -159332390 
                                                                                               Tue Oct 24 18:59:05 2017

Microchip Technology Omniscient Code Generator v1.42 (Free mode) build 201704130522
     1                           	processor	16F18857
     2                           	opt	pw 120
     3                           	opt	lm
     4                           	psect	stringtext1,global,class=STRCODE,delta=2
     5                           	psect	stringtext2,global,class=STRCODE,delta=2
     6                           	psect	stringtext3,global,class=STRCODE,delta=2
     7                           	psect	cinit,global,class=CODE,merge=1,delta=2
     8                           	psect	cstackCOMMON,global,class=COMMON,space=1,delta=1
     9                           	psect	maintext,global,class=CODE,merge=1,split=1,delta=2
    10                           	psect	text1,local,class=CODE,merge=1,delta=2
    11                           	psect	text2,local,class=CODE,merge=1,delta=2
    12                           	psect	text3,local,class=CODE,merge=1,delta=2
    13                           	psect	text4,local,class=CODE,merge=1,delta=2
    14                           	psect	text5,local,class=CODE,merge=1,delta=2
    15                           	psect	text6,local,class=CODE,merge=1,delta=2
    16                           	psect	text7,local,class=CODE,merge=1,delta=2
    17                           	psect	text8,local,class=CODE,merge=1,delta=2
    18                           	psect	text9,local,class=CODE,merge=1,delta=2
    19                           	psect	text10,local,class=CODE,merge=1,delta=2
    20                           	psect	text11,local,class=CODE,merge=1,delta=2
    21                           	psect	text12,local,class=CODE,merge=1,delta=2
    22                           	psect	text13,local,class=CODE,merge=1,delta=2
    23                           	psect	text14,local,class=CODE,merge=1,delta=2
    24                           	dabs	1,0x7E,2
    25  0000                     
    26                           ; Version 1.42
    27                           ; Generated 13/04/2017 GMT
    28                           ; 
    29                           ; Copyright © 2017, Microchip Technology Inc. and its subsidiaries ("Microchip")
    30                           ; All rights reserved.
    31                           ; 
    32                           ; This software is developed by Microchip Technology Inc. and its subsidiaries ("Microch
      +                          ip").
    33                           ; 
    34                           ; Redistribution and use in source and binary forms, with or without modification, are
    35                           ; permitted provided that the following conditions are met:
    36                           ; 
    37                           ;     1. Redistributions of source code must retain the above copyright notice, this lis
      +                          t of
    38                           ;        conditions and the following disclaimer.
    39                           ; 
    40                           ;     2. Redistributions in binary form must reproduce the above copyright notice, this 
      +                          list
    41                           ;        of conditions and the following disclaimer in the documentation and/or other
    42                           ;        materials provided with the distribution.
    43                           ; 
    44                           ;     3. Microchip's name may not be used to endorse or promote products derived from th
      +                          is
    45                           ;        software without specific prior written permission.
    46                           ; 
    47                           ; THIS SOFTWARE IS PROVIDED BY MICROCHIP "AS IS" AND ANY EXPRESS OR IMPLIED WARRANTIES,
    48                           ; INCLUDING, BUT NOT LIMITED TO, THE IMPLIED WARRANTIES OF MERCHANTABILITY AND FITNESS F
      +                          OR
    49                           ; PURPOSE ARE DISCLAIMED.  IN NO EVENT SHALL MICROCHIP BE LIABLE FOR ANY DIRECT, INDIREC
      +                          T,
    50                           ; INCIDENTAL, SPECIAL, EXEMPLARY, OR CONSEQUENTIAL DAMAGES (INCLUDING BUT NOT LIMITED TO
    51                           ; PROCUREMENT OF SUBSTITUTE GOODS OR SERVICES; LOSS OF USE, DATA OR PROFITS; OR BUSINESS
    52                           ; INTERRUPTION) HOWSOEVER CAUSED AND ON ANY THEORY OF LIABILITY, WHETHER IN CONTRACT, ST
      +                          RICT
    53                           ; LIABILITY, OR TORT (INCLUDING NEGLIGENCE OR OTHERWISE) ARISING IN ANY WAY OUT OF THE U
      +                          SE OF
    54                           ; THIS SOFTWARE, EVEN IF ADVISED OF THE POSSIBILITY OF SUCH DAMAGE.
    55                           ; 
    56                           ; 
    57                           ; Code-generator required, PIC16F18857 Definitions
    58                           ; 
    59                           ; SFR Addresses
    60  0000                     	;# 
    61  0001                     	;# 
    62  0002                     	;# 
    63  0003                     	;# 
    64  0004                     	;# 
    65  0005                     	;# 
    66  0006                     	;# 
    67  0007                     	;# 
    68  0008                     	;# 
    69  0009                     	;# 
    70  000A                     	;# 
    71  000B                     	;# 
    72  000C                     	;# 
    73  000D                     	;# 
    74  000E                     	;# 
    75  0010                     	;# 
    76  0011                     	;# 
    77  0012                     	;# 
    78  0013                     	;# 
    79  0016                     	;# 
    80  0017                     	;# 
    81  0018                     	;# 
    82  001C                     	;# 
    83  001C                     	;# 
    84  001D                     	;# 
    85  001D                     	;# 
    86  001E                     	;# 
    87  001F                     	;# 
    88  008C                     	;# 
    89  008C                     	;# 
    90  008D                     	;# 
    91  008E                     	;# 
    92  008E                     	;# 
    93  008F                     	;# 
    94  0090                     	;# 
    95  0090                     	;# 
    96  0091                     	;# 
    97  0093                     	;# 
    98  0094                     	;# 
    99  0095                     	;# 
   100  0096                     	;# 
   101  0097                     	;# 
   102  0098                     	;# 
   103  0099                     	;# 
   104  009A                     	;# 
   105  009B                     	;# 
   106  009C                     	;# 
   107  009D                     	;# 
   108  009E                     	;# 
   109  010C                     	;# 
   110  010D                     	;# 
   111  010E                     	;# 
   112  010E                     	;# 
   113  010F                     	;# 
   114  0110                     	;# 
   115  0110                     	;# 
   116  0111                     	;# 
   117  0112                     	;# 
   118  0112                     	;# 
   119  0113                     	;# 
   120  0114                     	;# 
   121  0114                     	;# 
   122  0115                     	;# 
   123  0116                     	;# 
   124  0116                     	;# 
   125  0117                     	;# 
   126  0119                     	;# 
   127  0119                     	;# 
   128  0119                     	;# 
   129  011A                     	;# 
   130  011A                     	;# 
   131  011A                     	;# 
   132  011B                     	;# 
   133  011B                     	;# 
   134  011B                     	;# 
   135  011B                     	;# 
   136  011B                     	;# 
   137  011C                     	;# 
   138  011C                     	;# 
   139  011C                     	;# 
   140  011D                     	;# 
   141  011D                     	;# 
   142  011D                     	;# 
   143  011E                     	;# 
   144  011E                     	;# 
   145  011E                     	;# 
   146  011F                     	;# 
   147  011F                     	;# 
   148  011F                     	;# 
   149  011F                     	;# 
   150  011F                     	;# 
   151  018C                     	;# 
   152  018D                     	;# 
   153  018E                     	;# 
   154  018F                     	;# 
   155  0190                     	;# 
   156  0191                     	;# 
   157  0192                     	;# 
   158  0196                     	;# 
   159  0197                     	;# 
   160  0198                     	;# 
   161  0199                     	;# 
   162  019A                     	;# 
   163  019B                     	;# 
   164  019C                     	;# 
   165  020C                     	;# 
   166  020C                     	;# 
   167  020D                     	;# 
   168  020E                     	;# 
   169  020F                     	;# 
   170  020F                     	;# 
   171  0210                     	;# 
   172  0210                     	;# 
   173  0211                     	;# 
   174  0211                     	;# 
   175  0212                     	;# 
   176  0212                     	;# 
   177  0213                     	;# 
   178  0214                     	;# 
   179  0215                     	;# 
   180  0215                     	;# 
   181  0216                     	;# 
   182  0216                     	;# 
   183  0217                     	;# 
   184  0217                     	;# 
   185  0218                     	;# 
   186  0218                     	;# 
   187  0219                     	;# 
   188  021A                     	;# 
   189  021B                     	;# 
   190  021B                     	;# 
   191  021C                     	;# 
   192  021C                     	;# 
   193  021D                     	;# 
   194  021D                     	;# 
   195  021E                     	;# 
   196  021F                     	;# 
   197  028C                     	;# 
   198  028C                     	;# 
   199  028D                     	;# 
   200  028D                     	;# 
   201  028E                     	;# 
   202  028F                     	;# 
   203  0290                     	;# 
   204  0290                     	;# 
   205  0291                     	;# 
   206  0292                     	;# 
   207  0292                     	;# 
   208  0293                     	;# 
   209  0293                     	;# 
   210  0294                     	;# 
   211  0295                     	;# 
   212  0296                     	;# 
   213  0296                     	;# 
   214  0297                     	;# 
   215  0298                     	;# 
   216  0298                     	;# 
   217  0299                     	;# 
   218  0299                     	;# 
   219  029A                     	;# 
   220  029B                     	;# 
   221  029C                     	;# 
   222  029C                     	;# 
   223  029D                     	;# 
   224  030C                     	;# 
   225  030C                     	;# 
   226  030D                     	;# 
   227  030E                     	;# 
   228  030F                     	;# 
   229  0310                     	;# 
   230  0310                     	;# 
   231  0311                     	;# 
   232  0312                     	;# 
   233  0313                     	;# 
   234  0314                     	;# 
   235  0314                     	;# 
   236  0315                     	;# 
   237  0316                     	;# 
   238  0317                     	;# 
   239  0318                     	;# 
   240  0318                     	;# 
   241  0319                     	;# 
   242  031A                     	;# 
   243  031B                     	;# 
   244  031C                     	;# 
   245  031C                     	;# 
   246  031D                     	;# 
   247  031E                     	;# 
   248  031F                     	;# 
   249  038C                     	;# 
   250  038D                     	;# 
   251  038E                     	;# 
   252  0390                     	;# 
   253  0391                     	;# 
   254  0392                     	;# 
   255  040C                     	;# 
   256  040D                     	;# 
   257  040E                     	;# 
   258  040F                     	;# 
   259  0410                     	;# 
   260  0411                     	;# 
   261  0416                     	;# 
   262  0416                     	;# 
   263  0417                     	;# 
   264  0418                     	;# 
   265  0418                     	;# 
   266  0419                     	;# 
   267  041A                     	;# 
   268  041A                     	;# 
   269  041B                     	;# 
   270  041C                     	;# 
   271  041C                     	;# 
   272  041D                     	;# 
   273  041E                     	;# 
   274  041F                     	;# 
   275  048C                     	;# 
   276  048C                     	;# 
   277  048D                     	;# 
   278  048E                     	;# 
   279  048F                     	;# 
   280  048F                     	;# 
   281  0490                     	;# 
   282  0491                     	;# 
   283  0492                     	;# 
   284  0492                     	;# 
   285  0493                     	;# 
   286  0494                     	;# 
   287  0495                     	;# 
   288  0495                     	;# 
   289  0496                     	;# 
   290  0497                     	;# 
   291  0498                     	;# 
   292  0499                     	;# 
   293  049A                     	;# 
   294  049B                     	;# 
   295  049C                     	;# 
   296  049D                     	;# 
   297  050C                     	;# 
   298  050C                     	;# 
   299  050D                     	;# 
   300  050E                     	;# 
   301  050F                     	;# 
   302  050F                     	;# 
   303  0510                     	;# 
   304  0511                     	;# 
   305  0512                     	;# 
   306  0512                     	;# 
   307  0513                     	;# 
   308  0514                     	;# 
   309  0515                     	;# 
   310  0515                     	;# 
   311  0516                     	;# 
   312  0517                     	;# 
   313  0518                     	;# 
   314  0519                     	;# 
   315  051A                     	;# 
   316  051B                     	;# 
   317  051C                     	;# 
   318  051D                     	;# 
   319  058C                     	;# 
   320  058C                     	;# 
   321  058D                     	;# 
   322  058E                     	;# 
   323  058F                     	;# 
   324  058F                     	;# 
   325  0590                     	;# 
   326  0591                     	;# 
   327  0592                     	;# 
   328  0593                     	;# 
   329  060C                     	;# 
   330  060D                     	;# 
   331  060E                     	;# 
   332  060F                     	;# 
   333  0610                     	;# 
   334  0611                     	;# 
   335  0612                     	;# 
   336  0613                     	;# 
   337  0614                     	;# 
   338  0616                     	;# 
   339  0617                     	;# 
   340  0618                     	;# 
   341  0619                     	;# 
   342  061A                     	;# 
   343  061B                     	;# 
   344  061C                     	;# 
   345  061D                     	;# 
   346  061E                     	;# 
   347  068C                     	;# 
   348  068D                     	;# 
   349  068E                     	;# 
   350  068F                     	;# 
   351  0690                     	;# 
   352  0691                     	;# 
   353  0692                     	;# 
   354  0693                     	;# 
   355  0694                     	;# 
   356  070C                     	;# 
   357  070D                     	;# 
   358  070E                     	;# 
   359  070F                     	;# 
   360  0710                     	;# 
   361  0711                     	;# 
   362  0712                     	;# 
   363  0713                     	;# 
   364  0714                     	;# 
   365  0716                     	;# 
   366  0717                     	;# 
   367  0718                     	;# 
   368  0719                     	;# 
   369  071A                     	;# 
   370  071B                     	;# 
   371  071C                     	;# 
   372  071D                     	;# 
   373  071E                     	;# 
   374  0796                     	;# 
   375  0797                     	;# 
   376  0798                     	;# 
   377  0799                     	;# 
   378  079A                     	;# 
   379  079B                     	;# 
   380  080C                     	;# 
   381  080D                     	;# 
   382  080E                     	;# 
   383  080F                     	;# 
   384  0810                     	;# 
   385  0811                     	;# 
   386  0812                     	;# 
   387  0813                     	;# 
   388  0814                     	;# 
   389  081A                     	;# 
   390  081B                     	;# 
   391  081C                     	;# 
   392  081D                     	;# 
   393  081E                     	;# 
   394  081F                     	;# 
   395  088C                     	;# 
   396  088D                     	;# 
   397  088E                     	;# 
   398  088F                     	;# 
   399  0890                     	;# 
   400  0891                     	;# 
   401  0892                     	;# 
   402  0893                     	;# 
   403  0895                     	;# 
   404  0896                     	;# 
   405  0897                     	;# 
   406  0898                     	;# 
   407  0899                     	;# 
   408  089A                     	;# 
   409  089B                     	;# 
   410  090C                     	;# 
   411  090E                     	;# 
   412  090F                     	;# 
   413  091F                     	;# 
   414  098F                     	;# 
   415  098F                     	;# 
   416  0990                     	;# 
   417  0991                     	;# 
   418  0992                     	;# 
   419  0993                     	;# 
   420  0994                     	;# 
   421  0995                     	;# 
   422  0996                     	;# 
   423  0997                     	;# 
   424  1E0F                     	;# 
   425  1E10                     	;# 
   426  1E11                     	;# 
   427  1E12                     	;# 
   428  1E13                     	;# 
   429  1E14                     	;# 
   430  1E15                     	;# 
   431  1E16                     	;# 
   432  1E17                     	;# 
   433  1E18                     	;# 
   434  1E19                     	;# 
   435  1E1A                     	;# 
   436  1E1B                     	;# 
   437  1E1C                     	;# 
   438  1E1D                     	;# 
   439  1E1E                     	;# 
   440  1E1F                     	;# 
   441  1E20                     	;# 
   442  1E21                     	;# 
   443  1E22                     	;# 
   444  1E23                     	;# 
   445  1E24                     	;# 
   446  1E25                     	;# 
   447  1E26                     	;# 
   448  1E27                     	;# 
   449  1E28                     	;# 
   450  1E29                     	;# 
   451  1E2A                     	;# 
   452  1E2B                     	;# 
   453  1E2C                     	;# 
   454  1E2D                     	;# 
   455  1E2E                     	;# 
   456  1E2F                     	;# 
   457  1E30                     	;# 
   458  1E31                     	;# 
   459  1E32                     	;# 
   460  1E33                     	;# 
   461  1E34                     	;# 
   462  1E35                     	;# 
   463  1E36                     	;# 
   464  1E37                     	;# 
   465  1E8F                     	;# 
   466  1E90                     	;# 
   467  1E91                     	;# 
   468  1E92                     	;# 
   469  1E93                     	;# 
   470  1E94                     	;# 
   471  1E95                     	;# 
   472  1E96                     	;# 
   473  1E97                     	;# 
   474  1E9C                     	;# 
   475  1E9D                     	;# 
   476  1E9E                     	;# 
   477  1EA1                     	;# 
   478  1EA2                     	;# 
   479  1EA3                     	;# 
   480  1EA4                     	;# 
   481  1EA5                     	;# 
   482  1EA9                     	;# 
   483  1EAA                     	;# 
   484  1EAB                     	;# 
   485  1EAC                     	;# 
   486  1EB1                     	;# 
   487  1EB2                     	;# 
   488  1EB3                     	;# 
   489  1EB8                     	;# 
   490  1EB9                     	;# 
   491  1EBA                     	;# 
   492  1EBB                     	;# 
   493  1EBC                     	;# 
   494  1EBD                     	;# 
   495  1EBE                     	;# 
   496  1EC3                     	;# 
   497  1EC5                     	;# 
   498  1EC6                     	;# 
   499  1EC7                     	;# 
   500  1EC8                     	;# 
   501  1EC9                     	;# 
   502  1ECA                     	;# 
   503  1ECB                     	;# 
   504  1ECC                     	;# 
   505  1F10                     	;# 
   506  1F11                     	;# 
   507  1F12                     	;# 
   508  1F13                     	;# 
   509  1F14                     	;# 
   510  1F15                     	;# 
   511  1F16                     	;# 
   512  1F17                     	;# 
   513  1F18                     	;# 
   514  1F19                     	;# 
   515  1F1A                     	;# 
   516  1F1B                     	;# 
   517  1F1C                     	;# 
   518  1F1D                     	;# 
   519  1F1E                     	;# 
   520  1F1F                     	;# 
   521  1F20                     	;# 
   522  1F21                     	;# 
   523  1F22                     	;# 
   524  1F23                     	;# 
   525  1F24                     	;# 
   526  1F25                     	;# 
   527  1F26                     	;# 
   528  1F27                     	;# 
   529  1F38                     	;# 
   530  1F39                     	;# 
   531  1F3A                     	;# 
   532  1F3B                     	;# 
   533  1F3C                     	;# 
   534  1F3D                     	;# 
   535  1F3E                     	;# 
   536  1F3F                     	;# 
   537  1F40                     	;# 
   538  1F41                     	;# 
   539  1F43                     	;# 
   540  1F44                     	;# 
   541  1F45                     	;# 
   542  1F46                     	;# 
   543  1F47                     	;# 
   544  1F48                     	;# 
   545  1F49                     	;# 
   546  1F4A                     	;# 
   547  1F4B                     	;# 
   548  1F4C                     	;# 
   549  1F4E                     	;# 
   550  1F4F                     	;# 
   551  1F50                     	;# 
   552  1F51                     	;# 
   553  1F52                     	;# 
   554  1F53                     	;# 
   555  1F54                     	;# 
   556  1F55                     	;# 
   557  1F56                     	;# 
   558  1F57                     	;# 
   559  1F65                     	;# 
   560  1F68                     	;# 
   561  1F69                     	;# 
   562  1F6A                     	;# 
   563  1F6B                     	;# 
   564  1FE4                     	;# 
   565  1FE5                     	;# 
   566  1FE6                     	;# 
   567  1FE7                     	;# 
   568  1FE8                     	;# 
   569  1FE9                     	;# 
   570  1FEA                     	;# 
   571  1FEB                     	;# 
   572  1FED                     	;# 
   573  1FEE                     	;# 
   574  1FEF                     	;# 
   575  0000                     	;# 
   576  0001                     	;# 
   577  0002                     	;# 
   578  0003                     	;# 
   579  0004                     	;# 
   580  0005                     	;# 
   581  0006                     	;# 
   582  0007                     	;# 
   583  0008                     	;# 
   584  0009                     	;# 
   585  000A                     	;# 
   586  000B                     	;# 
   587  000C                     	;# 
   588  000D                     	;# 
   589  000E                     	;# 
   590  0010                     	;# 
   591  0011                     	;# 
   592  0012                     	;# 
   593  0013                     	;# 
   594  0016                     	;# 
   595  0017                     	;# 
   596  0018                     	;# 
   597  001C                     	;# 
   598  001C                     	;# 
   599  001D                     	;# 
   600  001D                     	;# 
   601  001E                     	;# 
   602  001F                     	;# 
   603  008C                     	;# 
   604  008C                     	;# 
   605  008D                     	;# 
   606  008E                     	;# 
   607  008E                     	;# 
   608  008F                     	;# 
   609  0090                     	;# 
   610  0090                     	;# 
   611  0091                     	;# 
   612  0093                     	;# 
   613  0094                     	;# 
   614  0095                     	;# 
   615  0096                     	;# 
   616  0097                     	;# 
   617  0098                     	;# 
   618  0099                     	;# 
   619  009A                     	;# 
   620  009B                     	;# 
   621  009C                     	;# 
   622  009D                     	;# 
   623  009E                     	;# 
   624  010C                     	;# 
   625  010D                     	;# 
   626  010E                     	;# 
   627  010E                     	;# 
   628  010F                     	;# 
   629  0110                     	;# 
   630  0110                     	;# 
   631  0111                     	;# 
   632  0112                     	;# 
   633  0112                     	;# 
   634  0113                     	;# 
   635  0114                     	;# 
   636  0114                     	;# 
   637  0115                     	;# 
   638  0116                     	;# 
   639  0116                     	;# 
   640  0117                     	;# 
   641  0119                     	;# 
   642  0119                     	;# 
   643  0119                     	;# 
   644  011A                     	;# 
   645  011A                     	;# 
   646  011A                     	;# 
   647  011B                     	;# 
   648  011B                     	;# 
   649  011B                     	;# 
   650  011B                     	;# 
   651  011B                     	;# 
   652  011C                     	;# 
   653  011C                     	;# 
   654  011C                     	;# 
   655  011D                     	;# 
   656  011D                     	;# 
   657  011D                     	;# 
   658  011E                     	;# 
   659  011E                     	;# 
   660  011E                     	;# 
   661  011F                     	;# 
   662  011F                     	;# 
   663  011F                     	;# 
   664  011F                     	;# 
   665  011F                     	;# 
   666  018C                     	;# 
   667  018D                     	;# 
   668  018E                     	;# 
   669  018F                     	;# 
   670  0190                     	;# 
   671  0191                     	;# 
   672  0192                     	;# 
   673  0196                     	;# 
   674  0197                     	;# 
   675  0198                     	;# 
   676  0199                     	;# 
   677  019A                     	;# 
   678  019B                     	;# 
   679  019C                     	;# 
   680  020C                     	;# 
   681  020C                     	;# 
   682  020D                     	;# 
   683  020E                     	;# 
   684  020F                     	;# 
   685  020F                     	;# 
   686  0210                     	;# 
   687  0210                     	;# 
   688  0211                     	;# 
   689  0211                     	;# 
   690  0212                     	;# 
   691  0212                     	;# 
   692  0213                     	;# 
   693  0214                     	;# 
   694  0215                     	;# 
   695  0215                     	;# 
   696  0216                     	;# 
   697  0216                     	;# 
   698  0217                     	;# 
   699  0217                     	;# 
   700  0218                     	;# 
   701  0218                     	;# 
   702  0219                     	;# 
   703  021A                     	;# 
   704  021B                     	;# 
   705  021B                     	;# 
   706  021C                     	;# 
   707  021C                     	;# 
   708  021D                     	;# 
   709  021D                     	;# 
   710  021E                     	;# 
   711  021F                     	;# 
   712  028C                     	;# 
   713  028C                     	;# 
   714  028D                     	;# 
   715  028D                     	;# 
   716  028E                     	;# 
   717  028F                     	;# 
   718  0290                     	;# 
   719  0290                     	;# 
   720  0291                     	;# 
   721  0292                     	;# 
   722  0292                     	;# 
   723  0293                     	;# 
   724  0293                     	;# 
   725  0294                     	;# 
   726  0295                     	;# 
   727  0296                     	;# 
   728  0296                     	;# 
   729  0297                     	;# 
   730  0298                     	;# 
   731  0298                     	;# 
   732  0299                     	;# 
   733  0299                     	;# 
   734  029A                     	;# 
   735  029B                     	;# 
   736  029C                     	;# 
   737  029C                     	;# 
   738  029D                     	;# 
   739  030C                     	;# 
   740  030C                     	;# 
   741  030D                     	;# 
   742  030E                     	;# 
   743  030F                     	;# 
   744  0310                     	;# 
   745  0310                     	;# 
   746  0311                     	;# 
   747  0312                     	;# 
   748  0313                     	;# 
   749  0314                     	;# 
   750  0314                     	;# 
   751  0315                     	;# 
   752  0316                     	;# 
   753  0317                     	;# 
   754  0318                     	;# 
   755  0318                     	;# 
   756  0319                     	;# 
   757  031A                     	;# 
   758  031B                     	;# 
   759  031C                     	;# 
   760  031C                     	;# 
   761  031D                     	;# 
   762  031E                     	;# 
   763  031F                     	;# 
   764  038C                     	;# 
   765  038D                     	;# 
   766  038E                     	;# 
   767  0390                     	;# 
   768  0391                     	;# 
   769  0392                     	;# 
   770  040C                     	;# 
   771  040D                     	;# 
   772  040E                     	;# 
   773  040F                     	;# 
   774  0410                     	;# 
   775  0411                     	;# 
   776  0416                     	;# 
   777  0416                     	;# 
   778  0417                     	;# 
   779  0418                     	;# 
   780  0418                     	;# 
   781  0419                     	;# 
   782  041A                     	;# 
   783  041A                     	;# 
   784  041B                     	;# 
   785  041C                     	;# 
   786  041C                     	;# 
   787  041D                     	;# 
   788  041E                     	;# 
   789  041F                     	;# 
   790  048C                     	;# 
   791  048C                     	;# 
   792  048D                     	;# 
   793  048E                     	;# 
   794  048F                     	;# 
   795  048F                     	;# 
   796  0490                     	;# 
   797  0491                     	;# 
   798  0492                     	;# 
   799  0492                     	;# 
   800  0493                     	;# 
   801  0494                     	;# 
   802  0495                     	;# 
   803  0495                     	;# 
   804  0496                     	;# 
   805  0497                     	;# 
   806  0498                     	;# 
   807  0499                     	;# 
   808  049A                     	;# 
   809  049B                     	;# 
   810  049C                     	;# 
   811  049D                     	;# 
   812  050C                     	;# 
   813  050C                     	;# 
   814  050D                     	;# 
   815  050E                     	;# 
   816  050F                     	;# 
   817  050F                     	;# 
   818  0510                     	;# 
   819  0511                     	;# 
   820  0512                     	;# 
   821  0512                     	;# 
   822  0513                     	;# 
   823  0514                     	;# 
   824  0515                     	;# 
   825  0515                     	;# 
   826  0516                     	;# 
   827  0517                     	;# 
   828  0518                     	;# 
   829  0519                     	;# 
   830  051A                     	;# 
   831  051B                     	;# 
   832  051C                     	;# 
   833  051D                     	;# 
   834  058C                     	;# 
   835  058C                     	;# 
   836  058D                     	;# 
   837  058E                     	;# 
   838  058F                     	;# 
   839  058F                     	;# 
   840  0590                     	;# 
   841  0591                     	;# 
   842  0592                     	;# 
   843  0593                     	;# 
   844  060C                     	;# 
   845  060D                     	;# 
   846  060E                     	;# 
   847  060F                     	;# 
   848  0610                     	;# 
   849  0611                     	;# 
   850  0612                     	;# 
   851  0613                     	;# 
   852  0614                     	;# 
   853  0616                     	;# 
   854  0617                     	;# 
   855  0618                     	;# 
   856  0619                     	;# 
   857  061A                     	;# 
   858  061B                     	;# 
   859  061C                     	;# 
   860  061D                     	;# 
   861  061E                     	;# 
   862  068C                     	;# 
   863  068D                     	;# 
   864  068E                     	;# 
   865  068F                     	;# 
   866  0690                     	;# 
   867  0691                     	;# 
   868  0692                     	;# 
   869  0693                     	;# 
   870  0694                     	;# 
   871  070C                     	;# 
   872  070D                     	;# 
   873  070E                     	;# 
   874  070F                     	;# 
   875  0710                     	;# 
   876  0711                     	;# 
   877  0712                     	;# 
   878  0713                     	;# 
   879  0714                     	;# 
   880  0716                     	;# 
   881  0717                     	;# 
   882  0718                     	;# 
   883  0719                     	;# 
   884  071A                     	;# 
   885  071B                     	;# 
   886  071C                     	;# 
   887  071D                     	;# 
   888  071E                     	;# 
   889  0796                     	;# 
   890  0797                     	;# 
   891  0798                     	;# 
   892  0799                     	;# 
   893  079A                     	;# 
   894  079B                     	;# 
   895  080C                     	;# 
   896  080D                     	;# 
   897  080E                     	;# 
   898  080F                     	;# 
   899  0810                     	;# 
   900  0811                     	;# 
   901  0812                     	;# 
   902  0813                     	;# 
   903  0814                     	;# 
   904  081A                     	;# 
   905  081B                     	;# 
   906  081C                     	;# 
   907  081D                     	;# 
   908  081E                     	;# 
   909  081F                     	;# 
   910  088C                     	;# 
   911  088D                     	;# 
   912  088E                     	;# 
   913  088F                     	;# 
   914  0890                     	;# 
   915  0891                     	;# 
   916  0892                     	;# 
   917  0893                     	;# 
   918  0895                     	;# 
   919  0896                     	;# 
   920  0897                     	;# 
   921  0898                     	;# 
   922  0899                     	;# 
   923  089A                     	;# 
   924  089B                     	;# 
   925  090C                     	;# 
   926  090E                     	;# 
   927  090F                     	;# 
   928  091F                     	;# 
   929  098F                     	;# 
   930  098F                     	;# 
   931  0990                     	;# 
   932  0991                     	;# 
   933  0992                     	;# 
   934  0993                     	;# 
   935  0994                     	;# 
   936  0995                     	;# 
   937  0996                     	;# 
   938  0997                     	;# 
   939  1E0F                     	;# 
   940  1E10                     	;# 
   941  1E11                     	;# 
   942  1E12                     	;# 
   943  1E13                     	;# 
   944  1E14                     	;# 
   945  1E15                     	;# 
   946  1E16                     	;# 
   947  1E17                     	;# 
   948  1E18                     	;# 
   949  1E19                     	;# 
   950  1E1A                     	;# 
   951  1E1B                     	;# 
   952  1E1C                     	;# 
   953  1E1D                     	;# 
   954  1E1E                     	;# 
   955  1E1F                     	;# 
   956  1E20                     	;# 
   957  1E21                     	;# 
   958  1E22                     	;# 
   959  1E23                     	;# 
   960  1E24                     	;# 
   961  1E25                     	;# 
   962  1E26                     	;# 
   963  1E27                     	;# 
   964  1E28                     	;# 
   965  1E29                     	;# 
   966  1E2A                     	;# 
   967  1E2B                     	;# 
   968  1E2C                     	;# 
   969  1E2D                     	;# 
   970  1E2E                     	;# 
   971  1E2F                     	;# 
   972  1E30                     	;# 
   973  1E31                     	;# 
   974  1E32                     	;# 
   975  1E33                     	;# 
   976  1E34                     	;# 
   977  1E35                     	;# 
   978  1E36                     	;# 
   979  1E37                     	;# 
   980  1E8F                     	;# 
   981  1E90                     	;# 
   982  1E91                     	;# 
   983  1E92                     	;# 
   984  1E93                     	;# 
   985  1E94                     	;# 
   986  1E95                     	;# 
   987  1E96                     	;# 
   988  1E97                     	;# 
   989  1E9C                     	;# 
   990  1E9D                     	;# 
   991  1E9E                     	;# 
   992  1EA1                     	;# 
   993  1EA2                     	;# 
   994  1EA3                     	;# 
   995  1EA4                     	;# 
   996  1EA5                     	;# 
   997  1EA9                     	;# 
   998  1EAA                     	;# 
   999  1EAB                     	;# 
  1000  1EAC                     	;# 
  1001  1EB1                     	;# 
  1002  1EB2                     	;# 
  1003  1EB3                     	;# 
  1004  1EB8                     	;# 
  1005  1EB9                     	;# 
  1006  1EBA                     	;# 
  1007  1EBB                     	;# 
  1008  1EBC                     	;# 
  1009  1EBD                     	;# 
  1010  1EBE                     	;# 
  1011  1EC3                     	;# 
  1012  1EC5                     	;# 
  1013  1EC6                     	;# 
  1014  1EC7                     	;# 
  1015  1EC8                     	;# 
  1016  1EC9                     	;# 
  1017  1ECA                     	;# 
  1018  1ECB                     	;# 
  1019  1ECC                     	;# 
  1020  1F10                     	;# 
  1021  1F11                     	;# 
  1022  1F12                     	;# 
  1023  1F13                     	;# 
  1024  1F14                     	;# 
  1025  1F15                     	;# 
  1026  1F16                     	;# 
  1027  1F17                     	;# 
  1028  1F18                     	;# 
  1029  1F19                     	;# 
  1030  1F1A                     	;# 
  1031  1F1B                     	;# 
  1032  1F1C                     	;# 
  1033  1F1D                     	;# 
  1034  1F1E                     	;# 
  1035  1F1F                     	;# 
  1036  1F20                     	;# 
  1037  1F21                     	;# 
  1038  1F22                     	;# 
  1039  1F23                     	;# 
  1040  1F24                     	;# 
  1041  1F25                     	;# 
  1042  1F26                     	;# 
  1043  1F27                     	;# 
  1044  1F38                     	;# 
  1045  1F39                     	;# 
  1046  1F3A                     	;# 
  1047  1F3B                     	;# 
  1048  1F3C                     	;# 
  1049  1F3D                     	;# 
  1050  1F3E                     	;# 
  1051  1F3F                     	;# 
  1052  1F40                     	;# 
  1053  1F41                     	;# 
  1054  1F43                     	;# 
  1055  1F44                     	;# 
  1056  1F45                     	;# 
  1057  1F46                     	;# 
  1058  1F47                     	;# 
  1059  1F48                     	;# 
  1060  1F49                     	;# 
  1061  1F4A                     	;# 
  1062  1F4B                     	;# 
  1063  1F4C                     	;# 
  1064  1F4E                     	;# 
  1065  1F4F                     	;# 
  1066  1F50                     	;# 
  1067  1F51                     	;# 
  1068  1F52                     	;# 
  1069  1F53                     	;# 
  1070  1F54                     	;# 
  1071  1F55                     	;# 
  1072  1F56                     	;# 
  1073  1F57                     	;# 
  1074  1F65                     	;# 
  1075  1F68                     	;# 
  1076  1F69                     	;# 
  1077  1F6A                     	;# 
  1078  1F6B                     	;# 
  1079  1FE4                     	;# 
  1080  1FE5                     	;# 
  1081  1FE6                     	;# 
  1082  1FE7                     	;# 
  1083  1FE8                     	;# 
  1084  1FE9                     	;# 
  1085  1FEA                     	;# 
  1086  1FEB                     	;# 
  1087  1FED                     	;# 
  1088  1FEE                     	;# 
  1089  1FEF                     	;# 
  1090  0000                     	;# 
  1091  0001                     	;# 
  1092  0002                     	;# 
  1093  0003                     	;# 
  1094  0004                     	;# 
  1095  0005                     	;# 
  1096  0006                     	;# 
  1097  0007                     	;# 
  1098  0008                     	;# 
  1099  0009                     	;# 
  1100  000A                     	;# 
  1101  000B                     	;# 
  1102  000C                     	;# 
  1103  000D                     	;# 
  1104  000E                     	;# 
  1105  0010                     	;# 
  1106  0011                     	;# 
  1107  0012                     	;# 
  1108  0013                     	;# 
  1109  0016                     	;# 
  1110  0017                     	;# 
  1111  0018                     	;# 
  1112  001C                     	;# 
  1113  001C                     	;# 
  1114  001D                     	;# 
  1115  001D                     	;# 
  1116  001E                     	;# 
  1117  001F                     	;# 
  1118  008C                     	;# 
  1119  008C                     	;# 
  1120  008D                     	;# 
  1121  008E                     	;# 
  1122  008E                     	;# 
  1123  008F                     	;# 
  1124  0090                     	;# 
  1125  0090                     	;# 
  1126  0091                     	;# 
  1127  0093                     	;# 
  1128  0094                     	;# 
  1129  0095                     	;# 
  1130  0096                     	;# 
  1131  0097                     	;# 
  1132  0098                     	;# 
  1133  0099                     	;# 
  1134  009A                     	;# 
  1135  009B                     	;# 
  1136  009C                     	;# 
  1137  009D                     	;# 
  1138  009E                     	;# 
  1139  010C                     	;# 
  1140  010D                     	;# 
  1141  010E                     	;# 
  1142  010E                     	;# 
  1143  010F                     	;# 
  1144  0110                     	;# 
  1145  0110                     	;# 
  1146  0111                     	;# 
  1147  0112                     	;# 
  1148  0112                     	;# 
  1149  0113                     	;# 
  1150  0114                     	;# 
  1151  0114                     	;# 
  1152  0115                     	;# 
  1153  0116                     	;# 
  1154  0116                     	;# 
  1155  0117                     	;# 
  1156  0119                     	;# 
  1157  0119                     	;# 
  1158  0119                     	;# 
  1159  011A                     	;# 
  1160  011A                     	;# 
  1161  011A                     	;# 
  1162  011B                     	;# 
  1163  011B                     	;# 
  1164  011B                     	;# 
  1165  011B                     	;# 
  1166  011B                     	;# 
  1167  011C                     	;# 
  1168  011C                     	;# 
  1169  011C                     	;# 
  1170  011D                     	;# 
  1171  011D                     	;# 
  1172  011D                     	;# 
  1173  011E                     	;# 
  1174  011E                     	;# 
  1175  011E                     	;# 
  1176  011F                     	;# 
  1177  011F                     	;# 
  1178  011F                     	;# 
  1179  011F                     	;# 
  1180  011F                     	;# 
  1181  018C                     	;# 
  1182  018D                     	;# 
  1183  018E                     	;# 
  1184  018F                     	;# 
  1185  0190                     	;# 
  1186  0191                     	;# 
  1187  0192                     	;# 
  1188  0196                     	;# 
  1189  0197                     	;# 
  1190  0198                     	;# 
  1191  0199                     	;# 
  1192  019A                     	;# 
  1193  019B                     	;# 
  1194  019C                     	;# 
  1195  020C                     	;# 
  1196  020C                     	;# 
  1197  020D                     	;# 
  1198  020E                     	;# 
  1199  020F                     	;# 
  1200  020F                     	;# 
  1201  0210                     	;# 
  1202  0210                     	;# 
  1203  0211                     	;# 
  1204  0211                     	;# 
  1205  0212                     	;# 
  1206  0212                     	;# 
  1207  0213                     	;# 
  1208  0214                     	;# 
  1209  0215                     	;# 
  1210  0215                     	;# 
  1211  0216                     	;# 
  1212  0216                     	;# 
  1213  0217                     	;# 
  1214  0217                     	;# 
  1215  0218                     	;# 
  1216  0218                     	;# 
  1217  0219                     	;# 
  1218  021A                     	;# 
  1219  021B                     	;# 
  1220  021B                     	;# 
  1221  021C                     	;# 
  1222  021C                     	;# 
  1223  021D                     	;# 
  1224  021D                     	;# 
  1225  021E                     	;# 
  1226  021F                     	;# 
  1227  028C                     	;# 
  1228  028C                     	;# 
  1229  028D                     	;# 
  1230  028D                     	;# 
  1231  028E                     	;# 
  1232  028F                     	;# 
  1233  0290                     	;# 
  1234  0290                     	;# 
  1235  0291                     	;# 
  1236  0292                     	;# 
  1237  0292                     	;# 
  1238  0293                     	;# 
  1239  0293                     	;# 
  1240  0294                     	;# 
  1241  0295                     	;# 
  1242  0296                     	;# 
  1243  0296                     	;# 
  1244  0297                     	;# 
  1245  0298                     	;# 
  1246  0298                     	;# 
  1247  0299                     	;# 
  1248  0299                     	;# 
  1249  029A                     	;# 
  1250  029B                     	;# 
  1251  029C                     	;# 
  1252  029C                     	;# 
  1253  029D                     	;# 
  1254  030C                     	;# 
  1255  030C                     	;# 
  1256  030D                     	;# 
  1257  030E                     	;# 
  1258  030F                     	;# 
  1259  0310                     	;# 
  1260  0310                     	;# 
  1261  0311                     	;# 
  1262  0312                     	;# 
  1263  0313                     	;# 
  1264  0314                     	;# 
  1265  0314                     	;# 
  1266  0315                     	;# 
  1267  0316                     	;# 
  1268  0317                     	;# 
  1269  0318                     	;# 
  1270  0318                     	;# 
  1271  0319                     	;# 
  1272  031A                     	;# 
  1273  031B                     	;# 
  1274  031C                     	;# 
  1275  031C                     	;# 
  1276  031D                     	;# 
  1277  031E                     	;# 
  1278  031F                     	;# 
  1279  038C                     	;# 
  1280  038D                     	;# 
  1281  038E                     	;# 
  1282  0390                     	;# 
  1283  0391                     	;# 
  1284  0392                     	;# 
  1285  040C                     	;# 
  1286  040D                     	;# 
  1287  040E                     	;# 
  1288  040F                     	;# 
  1289  0410                     	;# 
  1290  0411                     	;# 
  1291  0416                     	;# 
  1292  0416                     	;# 
  1293  0417                     	;# 
  1294  0418                     	;# 
  1295  0418                     	;# 
  1296  0419                     	;# 
  1297  041A                     	;# 
  1298  041A                     	;# 
  1299  041B                     	;# 
  1300  041C                     	;# 
  1301  041C                     	;# 
  1302  041D                     	;# 
  1303  041E                     	;# 
  1304  041F                     	;# 
  1305  048C                     	;# 
  1306  048C                     	;# 
  1307  048D                     	;# 
  1308  048E                     	;# 
  1309  048F                     	;# 
  1310  048F                     	;# 
  1311  0490                     	;# 
  1312  0491                     	;# 
  1313  0492                     	;# 
  1314  0492                     	;# 
  1315  0493                     	;# 
  1316  0494                     	;# 
  1317  0495                     	;# 
  1318  0495                     	;# 
  1319  0496                     	;# 
  1320  0497                     	;# 
  1321  0498                     	;# 
  1322  0499                     	;# 
  1323  049A                     	;# 
  1324  049B                     	;# 
  1325  049C                     	;# 
  1326  049D                     	;# 
  1327  050C                     	;# 
  1328  050C                     	;# 
  1329  050D                     	;# 
  1330  050E                     	;# 
  1331  050F                     	;# 
  1332  050F                     	;# 
  1333  0510                     	;# 
  1334  0511                     	;# 
  1335  0512                     	;# 
  1336  0512                     	;# 
  1337  0513                     	;# 
  1338  0514                     	;# 
  1339  0515                     	;# 
  1340  0515                     	;# 
  1341  0516                     	;# 
  1342  0517                     	;# 
  1343  0518                     	;# 
  1344  0519                     	;# 
  1345  051A                     	;# 
  1346  051B                     	;# 
  1347  051C                     	;# 
  1348  051D                     	;# 
  1349  058C                     	;# 
  1350  058C                     	;# 
  1351  058D                     	;# 
  1352  058E                     	;# 
  1353  058F                     	;# 
  1354  058F                     	;# 
  1355  0590                     	;# 
  1356  0591                     	;# 
  1357  0592                     	;# 
  1358  0593                     	;# 
  1359  060C                     	;# 
  1360  060D                     	;# 
  1361  060E                     	;# 
  1362  060F                     	;# 
  1363  0610                     	;# 
  1364  0611                     	;# 
  1365  0612                     	;# 
  1366  0613                     	;# 
  1367  0614                     	;# 
  1368  0616                     	;# 
  1369  0617                     	;# 
  1370  0618                     	;# 
  1371  0619                     	;# 
  1372  061A                     	;# 
  1373  061B                     	;# 
  1374  061C                     	;# 
  1375  061D                     	;# 
  1376  061E                     	;# 
  1377  068C                     	;# 
  1378  068D                     	;# 
  1379  068E                     	;# 
  1380  068F                     	;# 
  1381  0690                     	;# 
  1382  0691                     	;# 
  1383  0692                     	;# 
  1384  0693                     	;# 
  1385  0694                     	;# 
  1386  070C                     	;# 
  1387  070D                     	;# 
  1388  070E                     	;# 
  1389  070F                     	;# 
  1390  0710                     	;# 
  1391  0711                     	;# 
  1392  0712                     	;# 
  1393  0713                     	;# 
  1394  0714                     	;# 
  1395  0716                     	;# 
  1396  0717                     	;# 
  1397  0718                     	;# 
  1398  0719                     	;# 
  1399  071A                     	;# 
  1400  071B                     	;# 
  1401  071C                     	;# 
  1402  071D                     	;# 
  1403  071E                     	;# 
  1404  0796                     	;# 
  1405  0797                     	;# 
  1406  0798                     	;# 
  1407  0799                     	;# 
  1408  079A                     	;# 
  1409  079B                     	;# 
  1410  080C                     	;# 
  1411  080D                     	;# 
  1412  080E                     	;# 
  1413  080F                     	;# 
  1414  0810                     	;# 
  1415  0811                     	;# 
  1416  0812                     	;# 
  1417  0813                     	;# 
  1418  0814                     	;# 
  1419  081A                     	;# 
  1420  081B                     	;# 
  1421  081C                     	;# 
  1422  081D                     	;# 
  1423  081E                     	;# 
  1424  081F                     	;# 
  1425  088C                     	;# 
  1426  088D                     	;# 
  1427  088E                     	;# 
  1428  088F                     	;# 
  1429  0890                     	;# 
  1430  0891                     	;# 
  1431  0892                     	;# 
  1432  0893                     	;# 
  1433  0895                     	;# 
  1434  0896                     	;# 
  1435  0897                     	;# 
  1436  0898                     	;# 
  1437  0899                     	;# 
  1438  089A                     	;# 
  1439  089B                     	;# 
  1440  090C                     	;# 
  1441  090E                     	;# 
  1442  090F                     	;# 
  1443  091F                     	;# 
  1444  098F                     	;# 
  1445  098F                     	;# 
  1446  0990                     	;# 
  1447  0991                     	;# 
  1448  0992                     	;# 
  1449  0993                     	;# 
  1450  0994                     	;# 
  1451  0995                     	;# 
  1452  0996                     	;# 
  1453  0997                     	;# 
  1454  1E0F                     	;# 
  1455  1E10                     	;# 
  1456  1E11                     	;# 
  1457  1E12                     	;# 
  1458  1E13                     	;# 
  1459  1E14                     	;# 
  1460  1E15                     	;# 
  1461  1E16                     	;# 
  1462  1E17                     	;# 
  1463  1E18                     	;# 
  1464  1E19                     	;# 
  1465  1E1A                     	;# 
  1466  1E1B                     	;# 
  1467  1E1C                     	;# 
  1468  1E1D                     	;# 
  1469  1E1E                     	;# 
  1470  1E1F                     	;# 
  1471  1E20                     	;# 
  1472  1E21                     	;# 
  1473  1E22                     	;# 
  1474  1E23                     	;# 
  1475  1E24                     	;# 
  1476  1E25                     	;# 
  1477  1E26                     	;# 
  1478  1E27                     	;# 
  1479  1E28                     	;# 
  1480  1E29                     	;# 
  1481  1E2A                     	;# 
  1482  1E2B                     	;# 
  1483  1E2C                     	;# 
  1484  1E2D                     	;# 
  1485  1E2E                     	;# 
  1486  1E2F                     	;# 
  1487  1E30                     	;# 
  1488  1E31                     	;# 
  1489  1E32                     	;# 
  1490  1E33                     	;# 
  1491  1E34                     	;# 
  1492  1E35                     	;# 
  1493  1E36                     	;# 
  1494  1E37                     	;# 
  1495  1E8F                     	;# 
  1496  1E90                     	;# 
  1497  1E91                     	;# 
  1498  1E92                     	;# 
  1499  1E93                     	;# 
  1500  1E94                     	;# 
  1501  1E95                     	;# 
  1502  1E96                     	;# 
  1503  1E97                     	;# 
  1504  1E9C                     	;# 
  1505  1E9D                     	;# 
  1506  1E9E                     	;# 
  1507  1EA1                     	;# 
  1508  1EA2                     	;# 
  1509  1EA3                     	;# 
  1510  1EA4                     	;# 
  1511  1EA5                     	;# 
  1512  1EA9                     	;# 
  1513  1EAA                     	;# 
  1514  1EAB                     	;# 
  1515  1EAC                     	;# 
  1516  1EB1                     	;# 
  1517  1EB2                     	;# 
  1518  1EB3                     	;# 
  1519  1EB8                     	;# 
  1520  1EB9                     	;# 
  1521  1EBA                     	;# 
  1522  1EBB                     	;# 
  1523  1EBC                     	;# 
  1524  1EBD                     	;# 
  1525  1EBE                     	;# 
  1526  1EC3                     	;# 
  1527  1EC5                     	;# 
  1528  1EC6                     	;# 
  1529  1EC7                     	;# 
  1530  1EC8                     	;# 
  1531  1EC9                     	;# 
  1532  1ECA                     	;# 
  1533  1ECB                     	;# 
  1534  1ECC                     	;# 
  1535  1F10                     	;# 
  1536  1F11                     	;# 
  1537  1F12                     	;# 
  1538  1F13                     	;# 
  1539  1F14                     	;# 
  1540  1F15                     	;# 
  1541  1F16                     	;# 
  1542  1F17                     	;# 
  1543  1F18                     	;# 
  1544  1F19                     	;# 
  1545  1F1A                     	;# 
  1546  1F1B                     	;# 
  1547  1F1C                     	;# 
  1548  1F1D                     	;# 
  1549  1F1E                     	;# 
  1550  1F1F                     	;# 
  1551  1F20                     	;# 
  1552  1F21                     	;# 
  1553  1F22                     	;# 
  1554  1F23                     	;# 
  1555  1F24                     	;# 
  1556  1F25                     	;# 
  1557  1F26                     	;# 
  1558  1F27                     	;# 
  1559  1F38                     	;# 
  1560  1F39                     	;# 
  1561  1F3A                     	;# 
  1562  1F3B                     	;# 
  1563  1F3C                     	;# 
  1564  1F3D                     	;# 
  1565  1F3E                     	;# 
  1566  1F3F                     	;# 
  1567  1F40                     	;# 
  1568  1F41                     	;# 
  1569  1F43                     	;# 
  1570  1F44                     	;# 
  1571  1F45                     	;# 
  1572  1F46                     	;# 
  1573  1F47                     	;# 
  1574  1F48                     	;# 
  1575  1F49                     	;# 
  1576  1F4A                     	;# 
  1577  1F4B                     	;# 
  1578  1F4C                     	;# 
  1579  1F4E                     	;# 
  1580  1F4F                     	;# 
  1581  1F50                     	;# 
  1582  1F51                     	;# 
  1583  1F52                     	;# 
  1584  1F53                     	;# 
  1585  1F54                     	;# 
  1586  1F55                     	;# 
  1587  1F56                     	;# 
  1588  1F57                     	;# 
  1589  1F65                     	;# 
  1590  1F68                     	;# 
  1591  1F69                     	;# 
  1592  1F6A                     	;# 
  1593  1F6B                     	;# 
  1594  1FE4                     	;# 
  1595  1FE5                     	;# 
  1596  1FE6                     	;# 
  1597  1FE7                     	;# 
  1598  1FE8                     	;# 
  1599  1FE9                     	;# 
  1600  1FEA                     	;# 
  1601  1FEB                     	;# 
  1602  1FED                     	;# 
  1603  1FEE                     	;# 
  1604  1FEF                     	;# 
  1605  0000                     	;# 
  1606  0001                     	;# 
  1607  0002                     	;# 
  1608  0003                     	;# 
  1609  0004                     	;# 
  1610  0005                     	;# 
  1611  0006                     	;# 
  1612  0007                     	;# 
  1613  0008                     	;# 
  1614  0009                     	;# 
  1615  000A                     	;# 
  1616  000B                     	;# 
  1617  000C                     	;# 
  1618  000D                     	;# 
  1619  000E                     	;# 
  1620  0010                     	;# 
  1621  0011                     	;# 
  1622  0012                     	;# 
  1623  0013                     	;# 
  1624  0016                     	;# 
  1625  0017                     	;# 
  1626  0018                     	;# 
  1627  001C                     	;# 
  1628  001C                     	;# 
  1629  001D                     	;# 
  1630  001D                     	;# 
  1631  001E                     	;# 
  1632  001F                     	;# 
  1633  008C                     	;# 
  1634  008C                     	;# 
  1635  008D                     	;# 
  1636  008E                     	;# 
  1637  008E                     	;# 
  1638  008F                     	;# 
  1639  0090                     	;# 
  1640  0090                     	;# 
  1641  0091                     	;# 
  1642  0093                     	;# 
  1643  0094                     	;# 
  1644  0095                     	;# 
  1645  0096                     	;# 
  1646  0097                     	;# 
  1647  0098                     	;# 
  1648  0099                     	;# 
  1649  009A                     	;# 
  1650  009B                     	;# 
  1651  009C                     	;# 
  1652  009D                     	;# 
  1653  009E                     	;# 
  1654  010C                     	;# 
  1655  010D                     	;# 
  1656  010E                     	;# 
  1657  010E                     	;# 
  1658  010F                     	;# 
  1659  0110                     	;# 
  1660  0110                     	;# 
  1661  0111                     	;# 
  1662  0112                     	;# 
  1663  0112                     	;# 
  1664  0113                     	;# 
  1665  0114                     	;# 
  1666  0114                     	;# 
  1667  0115                     	;# 
  1668  0116                     	;# 
  1669  0116                     	;# 
  1670  0117                     	;# 
  1671  0119                     	;# 
  1672  0119                     	;# 
  1673  0119                     	;# 
  1674  011A                     	;# 
  1675  011A                     	;# 
  1676  011A                     	;# 
  1677  011B                     	;# 
  1678  011B                     	;# 
  1679  011B                     	;# 
  1680  011B                     	;# 
  1681  011B                     	;# 
  1682  011C                     	;# 
  1683  011C                     	;# 
  1684  011C                     	;# 
  1685  011D                     	;# 
  1686  011D                     	;# 
  1687  011D                     	;# 
  1688  011E                     	;# 
  1689  011E                     	;# 
  1690  011E                     	;# 
  1691  011F                     	;# 
  1692  011F                     	;# 
  1693  011F                     	;# 
  1694  011F                     	;# 
  1695  011F                     	;# 
  1696  018C                     	;# 
  1697  018D                     	;# 
  1698  018E                     	;# 
  1699  018F                     	;# 
  1700  0190                     	;# 
  1701  0191                     	;# 
  1702  0192                     	;# 
  1703  0196                     	;# 
  1704  0197                     	;# 
  1705  0198                     	;# 
  1706  0199                     	;# 
  1707  019A                     	;# 
  1708  019B                     	;# 
  1709  019C                     	;# 
  1710  020C                     	;# 
  1711  020C                     	;# 
  1712  020D                     	;# 
  1713  020E                     	;# 
  1714  020F                     	;# 
  1715  020F                     	;# 
  1716  0210                     	;# 
  1717  0210                     	;# 
  1718  0211                     	;# 
  1719  0211                     	;# 
  1720  0212                     	;# 
  1721  0212                     	;# 
  1722  0213                     	;# 
  1723  0214                     	;# 
  1724  0215                     	;# 
  1725  0215                     	;# 
  1726  0216                     	;# 
  1727  0216                     	;# 
  1728  0217                     	;# 
  1729  0217                     	;# 
  1730  0218                     	;# 
  1731  0218                     	;# 
  1732  0219                     	;# 
  1733  021A                     	;# 
  1734  021B                     	;# 
  1735  021B                     	;# 
  1736  021C                     	;# 
  1737  021C                     	;# 
  1738  021D                     	;# 
  1739  021D                     	;# 
  1740  021E                     	;# 
  1741  021F                     	;# 
  1742  028C                     	;# 
  1743  028C                     	;# 
  1744  028D                     	;# 
  1745  028D                     	;# 
  1746  028E                     	;# 
  1747  028F                     	;# 
  1748  0290                     	;# 
  1749  0290                     	;# 
  1750  0291                     	;# 
  1751  0292                     	;# 
  1752  0292                     	;# 
  1753  0293                     	;# 
  1754  0293                     	;# 
  1755  0294                     	;# 
  1756  0295                     	;# 
  1757  0296                     	;# 
  1758  0296                     	;# 
  1759  0297                     	;# 
  1760  0298                     	;# 
  1761  0298                     	;# 
  1762  0299                     	;# 
  1763  0299                     	;# 
  1764  029A                     	;# 
  1765  029B                     	;# 
  1766  029C                     	;# 
  1767  029C                     	;# 
  1768  029D                     	;# 
  1769  030C                     	;# 
  1770  030C                     	;# 
  1771  030D                     	;# 
  1772  030E                     	;# 
  1773  030F                     	;# 
  1774  0310                     	;# 
  1775  0310                     	;# 
  1776  0311                     	;# 
  1777  0312                     	;# 
  1778  0313                     	;# 
  1779  0314                     	;# 
  1780  0314                     	;# 
  1781  0315                     	;# 
  1782  0316                     	;# 
  1783  0317                     	;# 
  1784  0318                     	;# 
  1785  0318                     	;# 
  1786  0319                     	;# 
  1787  031A                     	;# 
  1788  031B                     	;# 
  1789  031C                     	;# 
  1790  031C                     	;# 
  1791  031D                     	;# 
  1792  031E                     	;# 
  1793  031F                     	;# 
  1794  038C                     	;# 
  1795  038D                     	;# 
  1796  038E                     	;# 
  1797  0390                     	;# 
  1798  0391                     	;# 
  1799  0392                     	;# 
  1800  040C                     	;# 
  1801  040D                     	;# 
  1802  040E                     	;# 
  1803  040F                     	;# 
  1804  0410                     	;# 
  1805  0411                     	;# 
  1806  0416                     	;# 
  1807  0416                     	;# 
  1808  0417                     	;# 
  1809  0418                     	;# 
  1810  0418                     	;# 
  1811  0419                     	;# 
  1812  041A                     	;# 
  1813  041A                     	;# 
  1814  041B                     	;# 
  1815  041C                     	;# 
  1816  041C                     	;# 
  1817  041D                     	;# 
  1818  041E                     	;# 
  1819  041F                     	;# 
  1820  048C                     	;# 
  1821  048C                     	;# 
  1822  048D                     	;# 
  1823  048E                     	;# 
  1824  048F                     	;# 
  1825  048F                     	;# 
  1826  0490                     	;# 
  1827  0491                     	;# 
  1828  0492                     	;# 
  1829  0492                     	;# 
  1830  0493                     	;# 
  1831  0494                     	;# 
  1832  0495                     	;# 
  1833  0495                     	;# 
  1834  0496                     	;# 
  1835  0497                     	;# 
  1836  0498                     	;# 
  1837  0499                     	;# 
  1838  049A                     	;# 
  1839  049B                     	;# 
  1840  049C                     	;# 
  1841  049D                     	;# 
  1842  050C                     	;# 
  1843  050C                     	;# 
  1844  050D                     	;# 
  1845  050E                     	;# 
  1846  050F                     	;# 
  1847  050F                     	;# 
  1848  0510                     	;# 
  1849  0511                     	;# 
  1850  0512                     	;# 
  1851  0512                     	;# 
  1852  0513                     	;# 
  1853  0514                     	;# 
  1854  0515                     	;# 
  1855  0515                     	;# 
  1856  0516                     	;# 
  1857  0517                     	;# 
  1858  0518                     	;# 
  1859  0519                     	;# 
  1860  051A                     	;# 
  1861  051B                     	;# 
  1862  051C                     	;# 
  1863  051D                     	;# 
  1864  058C                     	;# 
  1865  058C                     	;# 
  1866  058D                     	;# 
  1867  058E                     	;# 
  1868  058F                     	;# 
  1869  058F                     	;# 
  1870  0590                     	;# 
  1871  0591                     	;# 
  1872  0592                     	;# 
  1873  0593                     	;# 
  1874  060C                     	;# 
  1875  060D                     	;# 
  1876  060E                     	;# 
  1877  060F                     	;# 
  1878  0610                     	;# 
  1879  0611                     	;# 
  1880  0612                     	;# 
  1881  0613                     	;# 
  1882  0614                     	;# 
  1883  0616                     	;# 
  1884  0617                     	;# 
  1885  0618                     	;# 
  1886  0619                     	;# 
  1887  061A                     	;# 
  1888  061B                     	;# 
  1889  061C                     	;# 
  1890  061D                     	;# 
  1891  061E                     	;# 
  1892  068C                     	;# 
  1893  068D                     	;# 
  1894  068E                     	;# 
  1895  068F                     	;# 
  1896  0690                     	;# 
  1897  0691                     	;# 
  1898  0692                     	;# 
  1899  0693                     	;# 
  1900  0694                     	;# 
  1901  070C                     	;# 
  1902  070D                     	;# 
  1903  070E                     	;# 
  1904  070F                     	;# 
  1905  0710                     	;# 
  1906  0711                     	;# 
  1907  0712                     	;# 
  1908  0713                     	;# 
  1909  0714                     	;# 
  1910  0716                     	;# 
  1911  0717                     	;# 
  1912  0718                     	;# 
  1913  0719                     	;# 
  1914  071A                     	;# 
  1915  071B                     	;# 
  1916  071C                     	;# 
  1917  071D                     	;# 
  1918  071E                     	;# 
  1919  0796                     	;# 
  1920  0797                     	;# 
  1921  0798                     	;# 
  1922  0799                     	;# 
  1923  079A                     	;# 
  1924  079B                     	;# 
  1925  080C                     	;# 
  1926  080D                     	;# 
  1927  080E                     	;# 
  1928  080F                     	;# 
  1929  0810                     	;# 
  1930  0811                     	;# 
  1931  0812                     	;# 
  1932  0813                     	;# 
  1933  0814                     	;# 
  1934  081A                     	;# 
  1935  081B                     	;# 
  1936  081C                     	;# 
  1937  081D                     	;# 
  1938  081E                     	;# 
  1939  081F                     	;# 
  1940  088C                     	;# 
  1941  088D                     	;# 
  1942  088E                     	;# 
  1943  088F                     	;# 
  1944  0890                     	;# 
  1945  0891                     	;# 
  1946  0892                     	;# 
  1947  0893                     	;# 
  1948  0895                     	;# 
  1949  0896                     	;# 
  1950  0897                     	;# 
  1951  0898                     	;# 
  1952  0899                     	;# 
  1953  089A                     	;# 
  1954  089B                     	;# 
  1955  090C                     	;# 
  1956  090E                     	;# 
  1957  090F                     	;# 
  1958  091F                     	;# 
  1959  098F                     	;# 
  1960  098F                     	;# 
  1961  0990                     	;# 
  1962  0991                     	;# 
  1963  0992                     	;# 
  1964  0993                     	;# 
  1965  0994                     	;# 
  1966  0995                     	;# 
  1967  0996                     	;# 
  1968  0997                     	;# 
  1969  1E0F                     	;# 
  1970  1E10                     	;# 
  1971  1E11                     	;# 
  1972  1E12                     	;# 
  1973  1E13                     	;# 
  1974  1E14                     	;# 
  1975  1E15                     	;# 
  1976  1E16                     	;# 
  1977  1E17                     	;# 
  1978  1E18                     	;# 
  1979  1E19                     	;# 
  1980  1E1A                     	;# 
  1981  1E1B                     	;# 
  1982  1E1C                     	;# 
  1983  1E1D                     	;# 
  1984  1E1E                     	;# 
  1985  1E1F                     	;# 
  1986  1E20                     	;# 
  1987  1E21                     	;# 
  1988  1E22                     	;# 
  1989  1E23                     	;# 
  1990  1E24                     	;# 
  1991  1E25                     	;# 
  1992  1E26                     	;# 
  1993  1E27                     	;# 
  1994  1E28                     	;# 
  1995  1E29                     	;# 
  1996  1E2A                     	;# 
  1997  1E2B                     	;# 
  1998  1E2C                     	;# 
  1999  1E2D                     	;# 
  2000  1E2E                     	;# 
  2001  1E2F                     	;# 
  2002  1E30                     	;# 
  2003  1E31                     	;# 
  2004  1E32                     	;# 
  2005  1E33                     	;# 
  2006  1E34                     	;# 
  2007  1E35                     	;# 
  2008  1E36                     	;# 
  2009  1E37                     	;# 
  2010  1E8F                     	;# 
  2011  1E90                     	;# 
  2012  1E91                     	;# 
  2013  1E92                     	;# 
  2014  1E93                     	;# 
  2015  1E94                     	;# 
  2016  1E95                     	;# 
  2017  1E96                     	;# 
  2018  1E97                     	;# 
  2019  1E9C                     	;# 
  2020  1E9D                     	;# 
  2021  1E9E                     	;# 
  2022  1EA1                     	;# 
  2023  1EA2                     	;# 
  2024  1EA3                     	;# 
  2025  1EA4                     	;# 
  2026  1EA5                     	;# 
  2027  1EA9                     	;# 
  2028  1EAA                     	;# 
  2029  1EAB                     	;# 
  2030  1EAC                     	;# 
  2031  1EB1                     	;# 
  2032  1EB2                     	;# 
  2033  1EB3                     	;# 
  2034  1EB8                     	;# 
  2035  1EB9                     	;# 
  2036  1EBA                     	;# 
  2037  1EBB                     	;# 
  2038  1EBC                     	;# 
  2039  1EBD                     	;# 
  2040  1EBE                     	;# 
  2041  1EC3                     	;# 
  2042  1EC5                     	;# 
  2043  1EC6                     	;# 
  2044  1EC7                     	;# 
  2045  1EC8                     	;# 
  2046  1EC9                     	;# 
  2047  1ECA                     	;# 
  2048  1ECB                     	;# 
  2049  1ECC                     	;# 
  2050  1F10                     	;# 
  2051  1F11                     	;# 
  2052  1F12                     	;# 
  2053  1F13                     	;# 
  2054  1F14                     	;# 
  2055  1F15                     	;# 
  2056  1F16                     	;# 
  2057  1F17                     	;# 
  2058  1F18                     	;# 
  2059  1F19                     	;# 
  2060  1F1A                     	;# 
  2061  1F1B                     	;# 
  2062  1F1C                     	;# 
  2063  1F1D                     	;# 
  2064  1F1E                     	;# 
  2065  1F1F                     	;# 
  2066  1F20                     	;# 
  2067  1F21                     	;# 
  2068  1F22                     	;# 
  2069  1F23                     	;# 
  2070  1F24                     	;# 
  2071  1F25                     	;# 
  2072  1F26                     	;# 
  2073  1F27                     	;# 
  2074  1F38                     	;# 
  2075  1F39                     	;# 
  2076  1F3A                     	;# 
  2077  1F3B                     	;# 
  2078  1F3C                     	;# 
  2079  1F3D                     	;# 
  2080  1F3E                     	;# 
  2081  1F3F                     	;# 
  2082  1F40                     	;# 
  2083  1F41                     	;# 
  2084  1F43                     	;# 
  2085  1F44                     	;# 
  2086  1F45                     	;# 
  2087  1F46                     	;# 
  2088  1F47                     	;# 
  2089  1F48                     	;# 
  2090  1F49                     	;# 
  2091  1F4A                     	;# 
  2092  1F4B                     	;# 
  2093  1F4C                     	;# 
  2094  1F4E                     	;# 
  2095  1F4F                     	;# 
  2096  1F50                     	;# 
  2097  1F51                     	;# 
  2098  1F52                     	;# 
  2099  1F53                     	;# 
  2100  1F54                     	;# 
  2101  1F55                     	;# 
  2102  1F56                     	;# 
  2103  1F57                     	;# 
  2104  1F65                     	;# 
  2105  1F68                     	;# 
  2106  1F69                     	;# 
  2107  1F6A                     	;# 
  2108  1F6B                     	;# 
  2109  1FE4                     	;# 
  2110  1FE5                     	;# 
  2111  1FE6                     	;# 
  2112  1FE7                     	;# 
  2113  1FE8                     	;# 
  2114  1FE9                     	;# 
  2115  1FEA                     	;# 
  2116  1FEB                     	;# 
  2117  1FED                     	;# 
  2118  1FEE                     	;# 
  2119  1FEF                     	;# 
  2120  0011                     _TRISAbits	set	17
  2121  000E                     _PORTC	set	14
  2122  000E                     _PORTCbits	set	14
  2123  000D                     _PORTB	set	13
  2124  0011                     _TRISA	set	17
  2125  0013                     _TRISC	set	19
  2126  0012                     _TRISB	set	18
  2127  0018                     _LATC	set	24
  2128  0016                     _LATA	set	22
  2129  0017                     _LATB	set	23
  2130  005F                     _GIE	set	95
  2131  008C                     _ADRESL	set	140
  2132  008D                     _ADRESH	set	141
  2133  009E                     _ADPCH	set	158
  2134  009A                     _ADREF	set	154
  2135  0093                     _ADCON0	set	147
  2136  009C                     _ADPRE	set	156
  2137  009B                     _ADCAP	set	155
  2138  0097                     _ADSTAT	set	151
  2139  0099                     _ADACT	set	153
  2140  0096                     _ADCON3	set	150
  2141  0095                     _ADCON2	set	149
  2142  0094                     _ADCON1	set	148
  2143  011A                     _TX1REG	set	282
  2144  0119                     _RC1REG	set	281
  2145  011D                     _RC1STAbits	set	285
  2146  011C                     _SP1BRGH	set	284
  2147  011B                     _SP1BRGL	set	283
  2148  011E                     _TX1STA	set	286
  2149  011D                     _RC1STA	set	285
  2150  011F                     _BAUD1CON	set	287
  2151  070F                     _PIR3bits	set	1807
  2152  0892                     _OSCTUNE	set	2194
  2153  0890                     _OSCSTAT	set	2192
  2154  0893                     _OSCFRQ	set	2195
  2155  0891                     _OSCEN	set	2193
  2156  088F                     _OSCCON3	set	2191
  2157  088D                     _OSCCON1	set	2189
  2158  1ECB                     _RXPPS	set	7883
  2159  1E8F                     _PPSLOCKbits	set	7823
  2160  1E8F                     _PPSLOCK	set	7823
  2161  1F38                     _ANSELAbits	set	7992
  2162  1F23                     _RC3PPS	set	7971
  2163  1F26                     _RC6PPS	set	7974
  2164  1F4E                     _ANSELC	set	8014
  2165  1F43                     _ANSELB	set	8003
  2166  1F38                     _ANSELA	set	7992
  2167  1F4F                     _WPUC	set	8015
  2168  1F44                     _WPUB	set	8004
  2169  1F39                     _WPUA	set	7993
  2170                           
  2171                           	psect	stringtext1
  2172  0800                     __pstringtext1:	
  2173  0800                     STR_2:	
  2174  0800  3474               	retlw	116	;'t'
  2175  0801  346F               	retlw	111	;'o'
  2176  0802  3420               	retlw	32	;' '
  2177  0803  3462               	retlw	98	;'b'
  2178  0804  3465               	retlw	101	;'e'
  2179  0805  3420               	retlw	32	;' '
  2180  0806  3472               	retlw	114	;'r'
  2181  0807  3465               	retlw	101	;'e'
  2182  0808  3470               	retlw	112	;'p'
  2183  0809  346C               	retlw	108	;'l'
  2184  080A  3461               	retlw	97	;'a'
  2185  080B  3463               	retlw	99	;'c'
  2186  080C  3465               	retlw	101	;'e'
  2187  080D  3464               	retlw	100	;'d'
  2188  080E  3420               	retlw	32	;' '
  2189  080F  3466               	retlw	102	;'f'
  2190  0810  346F               	retlw	111	;'o'
  2191  0811  3472               	retlw	114	;'r'
  2192  0812  3420               	retlw	32	;' '
  2193  0813  3474               	retlw	116	;'t'
  2194  0814  3468               	retlw	104	;'h'
  2195  0815  3465               	retlw	101	;'e'
  2196  0816  3420               	retlw	32	;' '
  2197  0817  3470               	retlw	112	;'p'
  2198  0818  3469               	retlw	105	;'i'
  2199  0819  346E               	retlw	110	;'n'
  2200  081A  3467               	retlw	103	;'g'
  2201  081B  3420               	retlw	32	;' '
  2202  081C  3473               	retlw	115	;'s'
  2203  081D  3465               	retlw	101	;'e'
  2204  081E  346E               	retlw	110	;'n'
  2205  081F  3473               	retlw	115	;'s'
  2206  0820  346F               	retlw	111	;'o'
  2207  0821  3472               	retlw	114	;'r'
  2208  0822  3469               	retlw	105	;'i'
  2209  0823  346E               	retlw	110	;'n'
  2210  0824  3467               	retlw	103	;'g'
  2211  0825  3400               	retlw	0
  2212                           
  2213                           	psect	stringtext2
  2214  0826                     __pstringtext2:	
  2215  0826                     STR_1:	
  2216  0826  3452               	retlw	82	;'R'
  2217  0827  3445               	retlw	69	;'E'
  2218  0828  3445               	retlw	69	;'E'
  2219  0829  3445               	retlw	69	;'E'
  2220  082A  3445               	retlw	69	;'E'
  2221  082B  3445               	retlw	69	;'E'
  2222  082C  3445               	retlw	69	;'E'
  2223  082D  3445               	retlw	69	;'E'
  2224  082E  3445               	retlw	69	;'E'
  2225  082F  3445               	retlw	69	;'E'
  2226  0830  3445               	retlw	69	;'E'
  2227  0831  3445               	retlw	69	;'E'
  2228  0832  3400               	retlw	0
  2229                           
  2230                           	psect	stringtext3
  2231  0000                     __pstringtext3:	
  2232                           
  2233                           ; #config settings
  2234  0000                     
  2235                           	psect	cinit
  2236  07FD                     start_initialization:	
  2237  07FD                     __initialization:	
  2238  07FD                     end_of_initialization:	
  2239                           ;End of C runtime variable initialization code
  2240                           
  2241  07FD                     __end_of__initialization:	
  2242  07FD  0140               	movlb	0
  2243  07FE  3187  2F84         	ljmp	_main	;jump to C main() function
  2244                           
  2245                           	psect	cstackCOMMON
  2246  0070                     __pcstackCOMMON:	
  2247  0070                     ?_EUSART_Write:	
  2248  0070                     ??_EUSART_Write:	
  2249                           ; 1 bytes @ 0x0
  2250                           
  2251  0070                     ?_putch:	
  2252                           ; 1 bytes @ 0x0
  2253                           
  2254  0070                     ?_servoRotate0:	
  2255                           ; 1 bytes @ 0x0
  2256                           
  2257  0070                     ??_servoRotate0:	
  2258                           ; 1 bytes @ 0x0
  2259                           
  2260  0070                     ?_servoRotate30:	
  2261                           ; 1 bytes @ 0x0
  2262                           
  2263  0070                     ??_servoRotate30:	
  2264                           ; 1 bytes @ 0x0
  2265                           
  2266  0070                     ?_servoRotate90:	
  2267                           ; 1 bytes @ 0x0
  2268                           
  2269  0070                     ??_servoRotate90:	
  2270                           ; 1 bytes @ 0x0
  2271                           
  2272  0070                     ?_servoRotate120:	
  2273                           ; 1 bytes @ 0x0
  2274                           
  2275  0070                     ??_servoRotate120:	
  2276                           ; 1 bytes @ 0x0
  2277                           
  2278  0070                     ?_set_receive:	
  2279                           ; 1 bytes @ 0x0
  2280                           
  2281  0070                     ??_set_receive:	
  2282                           ; 1 bytes @ 0x0
  2283                           
  2284  0070                     ?_receive_msg:	
  2285                           ; 1 bytes @ 0x0
  2286                           
  2287  0070                     ??_receive_msg:	
  2288                           ; 1 bytes @ 0x0
  2289                           
  2290  0070                     ?_sensorReset:	
  2291                           ; 1 bytes @ 0x0
  2292                           
  2293  0070                     ?_ADC_Init:	
  2294                           ; 1 bytes @ 0x0
  2295                           
  2296  0070                     ??_ADC_Init:	
  2297                           ; 1 bytes @ 0x0
  2298                           
  2299  0070                     ?_sensorPing:	
  2300                           ; 1 bytes @ 0x0
  2301                           
  2302  0070                     ?_sendADCResults:	
  2303                           ; 1 bytes @ 0x0
  2304                           
  2305  0070                     ?_main:	
  2306                           ; 1 bytes @ 0x0
  2307                           
  2308  0070                     ?_ADC_conversion_results:	
  2309                           ; 1 bytes @ 0x0
  2310                           
  2311  0070                     EUSART_Write@txData:	
  2312                           ; 2 bytes @ 0x0
  2313                           
  2314                           
  2315                           ; 1 bytes @ 0x0
  2316  0070                     	ds	1
  2317  0071                     ??_putch:	
  2318  0071                     putch@txData:	
  2319                           ; 1 bytes @ 0x1
  2320                           
  2321  0071                     receive_msg@results:	
  2322                           ; 1 bytes @ 0x1
  2323                           
  2324  0071                     servoRotate0@i:	
  2325                           ; 1 bytes @ 0x1
  2326                           
  2327  0071                     servoRotate30@i:	
  2328                           ; 2 bytes @ 0x1
  2329                           
  2330  0071                     servoRotate90@i:	
  2331                           ; 2 bytes @ 0x1
  2332                           
  2333  0071                     servoRotate120@i:	
  2334                           ; 2 bytes @ 0x1
  2335                           
  2336                           
  2337                           ; 2 bytes @ 0x1
  2338  0071                     	ds	1
  2339  0072                     ??_ADC_conversion_results:	
  2340  0072                     ?_printf:	
  2341                           ; 1 bytes @ 0x2
  2342                           
  2343  0072                     ADC_conversion_results@result:	
  2344                           ; 2 bytes @ 0x2
  2345                           
  2346  0072                     printf@f:	
  2347                           ; 2 bytes @ 0x2
  2348                           
  2349                           
  2350                           ; 2 bytes @ 0x2
  2351  0072                     	ds	2
  2352  0074                     ??_printf:	
  2353  0074                     ??_sendADCResults:	
  2354                           ; 1 bytes @ 0x4
  2355                           
  2356  0074                     sendADCResults@results:	
  2357                           ; 1 bytes @ 0x4
  2358                           
  2359                           
  2360                           ; 2 bytes @ 0x4
  2361  0074                     	ds	3
  2362  0077                     printf@ap:	
  2363                           
  2364                           ; 1 bytes @ 0x7
  2365  0077                     	ds	1
  2366  0078                     printf@c:	
  2367                           
  2368                           ; 1 bytes @ 0x8
  2369  0078                     	ds	1
  2370  0079                     ??_sensorReset:	
  2371  0079                     ??_sensorPing:	
  2372                           ; 1 bytes @ 0x9
  2373                           
  2374  0079                     ??_main:	
  2375                           ; 1 bytes @ 0x9
  2376                           
  2377                           
  2378                           ; 1 bytes @ 0x9
  2379  0079                     	ds	1
  2380  007A                     main@msg:	
  2381                           
  2382                           ; 1 bytes @ 0xA
  2383  007A                     	ds	1
  2384                           
  2385                           	psect	maintext
  2386  0784                     __pmaintext:	
  2387 ;;
  2388 ;;Main: autosize = 0, tempsize = 1, incstack = 0, save=0
  2389 ;;
  2390 ;; *************** function _main *****************
  2391 ;; Defined at:
  2392 ;;		line 267 in file "main.c"
  2393 ;; Parameters:    Size  Location     Type
  2394 ;;		None
  2395 ;; Auto vars:     Size  Location     Type
  2396 ;;  msg             1   10[COMMON] unsigned char 
  2397 ;; Return value:  Size  Location     Type
  2398 ;;                  1    wreg      void 
  2399 ;; Registers used:
  2400 ;;		wreg, fsr0l, fsr0h, status,2, status,0, pclath, cstack
  2401 ;; Tracked objects:
  2402 ;;		On entry : B3F/0
  2403 ;;		On exit  : 0/0
  2404 ;;		Unchanged: 0/0
  2405 ;; Data sizes:     COMMON   BANK0   BANK1   BANK2   BANK3   BANK4   BANK5   BANK6   BANK7   BANK8   BANK9  BANK10  BANK1
      +1  BANK12  BANK13  BANK14  BANK15  BANK16  BANK17  BANK18  BANK19  BANK20  BANK21  BANK22  BANK23  BANK24  BANK25  BANK2
      +6  BANK27  BANK28  BANK29  BANK30  BANK31  BANK32  BANK33  BANK34  BANK35  BANK36  BANK37  BANK38  BANK39  BANK40  BANK4
      +1  BANK42  BANK43  BANK44  BANK45  BANK46  BANK47  BANK48  BANK49  BANK50
  2406 ;;      Params:         0       0       0       0       0       0       0       0       0       0       0       0       
      +0       0       0       0       0       0       0       0       0       0       0       0       0       0       0       
      +0       0       0       0       0       0       0       0       0       0       0       0       0       0       0       
      +0       0       0       0       0       0       0       0       0       0
  2407 ;;      Locals:         1       0       0       0       0       0       0       0       0       0       0       0       
      +0       0       0       0       0       0       0       0       0       0       0       0       0       0       0       
      +0       0       0       0       0       0       0       0       0       0       0       0       0       0       0       
      +0       0       0       0       0       0       0       0       0       0
  2408 ;;      Temps:          1       0       0       0       0       0       0       0       0       0       0       0       
      +0       0       0       0       0       0       0       0       0       0       0       0       0       0       0       
      +0       0       0       0       0       0       0       0       0       0       0       0       0       0       0       
      +0       0       0       0       0       0       0       0       0       0
  2409 ;;      Totals:         2       0       0       0       0       0       0       0       0       0       0       0       
      +0       0       0       0       0       0       0       0       0       0       0       0       0       0       0       
      +0       0       0       0       0       0       0       0       0       0       0       0       0       0       0       
      +0       0       0       0       0       0       0       0       0       0
  2410 ;;Total ram usage:        2 bytes
  2411 ;; Hardware stack levels required when called:    4
  2412 ;; This function calls:
  2413 ;;		_ADC_Init
  2414 ;;		_receive_msg
  2415 ;;		_sendADCResults
  2416 ;;		_sensorPing
  2417 ;;		_sensorReset
  2418 ;;		_servoRotate120
  2419 ;;		_servoRotate30
  2420 ;;		_servoRotate90
  2421 ;; This function is called by:
  2422 ;;		Startup code after reset
  2423 ;; This function uses a non-reentrant model
  2424 ;;
  2425                           
  2426                           
  2427                           ;psect for function _main
  2428  0784                     _main:	
  2429                           
  2430                           ;main.c: 269: unsigned char msg;
  2431                           ;main.c: 270: TRISB = 0;
  2432                           
  2433                           ;incstack = 0
  2434                           ; Regs used in _main: [wreg-fsr0h+status,2+status,0+pclath+cstack]
  2435  0784  0140               	movlb	0	; select bank0
  2436  0785  0192               	clrf	18	;volatile
  2437                           
  2438                           ;main.c: 271: ADC_Init();
  2439  0786  3186  26C2  3187   	fcall	_ADC_Init
  2440                           
  2441                           ;main.c: 272: TRISA &= !0x01;
  2442  0789  0140               	movlb	0	; select bank0
  2443  078A  0191               	clrf	17	;volatile
  2444  078B  2F9F               	goto	l233
  2445  078C                     l1106:	
  2446                           
  2447                           ;main.c: 277: sensorReset();
  2448  078C  3186  26AF  3187   	fcall	_sensorReset
  2449  078F  2F9F               	goto	l233
  2450  0790                     l1110:	
  2451                           
  2452                           ;main.c: 279: sensorPing();
  2453  0790  3186  269E  3187   	fcall	_sensorPing
  2454  0793  2F9F               	goto	l233
  2455  0794                     l1114:	
  2456                           
  2457                           ;main.c: 281: {
  2458                           ;main.c: 282: sendADCResults();
  2459  0794  3186  268E  3187   	fcall	_sendADCResults
  2460                           
  2461                           ;main.c: 283: }
  2462  0797  2F9F               	goto	l233
  2463  0798                     l1118:	
  2464                           
  2465                           ;main.c: 285: servoRotate30();
  2466  0798  3187  2735  3187   	fcall	_servoRotate30
  2467  079B  2F9F               	goto	l233
  2468  079C                     l1122:	
  2469                           
  2470                           ;main.c: 287: servoRotate90();
  2471  079C  3187  275C  3187   	fcall	_servoRotate90
  2472  079F                     l233:	
  2473                           ;main.c: 273: while(1)
  2474                           
  2475                           
  2476                           ;main.c: 274: {
  2477                           ;main.c: 275: msg=receive_msg();
  2478  079F  3187  27BF  3187   	fcall	_receive_msg
  2479  07A2  00F9               	movwf	??_main
  2480  07A3  0879               	movf	??_main,w
  2481  07A4  00FA               	movwf	main@msg
  2482                           
  2483                           ;main.c: 276: if(msg == 0x0)
  2484  07A5  087A               	movf	main@msg,w
  2485  07A6  1903               	btfsc	3,2
  2486  07A7  2F8C               	goto	l1106
  2487                           
  2488                           ;main.c: 278: else if (msg == 0x1)
  2489  07A8  037A               	decf	main@msg,w
  2490  07A9  1903               	btfsc	3,2
  2491  07AA  2F90               	goto	l1110
  2492                           
  2493                           ;main.c: 280: else if (msg == 0x2)
  2494  07AB  3002               	movlw	2
  2495  07AC  067A               	xorwf	main@msg,w
  2496  07AD  1903               	btfsc	3,2
  2497  07AE  2F94               	goto	l1114
  2498                           
  2499                           ;main.c: 284: else if (msg == 0x3)
  2500  07AF  3003               	movlw	3
  2501  07B0  067A               	xorwf	main@msg,w
  2502  07B1  1903               	btfsc	3,2
  2503  07B2  2F98               	goto	l1118
  2504                           
  2505                           ;main.c: 286: else if (msg == 0x4)
  2506  07B3  3004               	movlw	4
  2507  07B4  067A               	xorwf	main@msg,w
  2508  07B5  1903               	btfsc	3,2
  2509  07B6  2F9C               	goto	l1122
  2510                           
  2511                           ;main.c: 288: else if (msg == 0x5)
  2512  07B7  3005               	movlw	5
  2513  07B8  067A               	xorwf	main@msg,w
  2514  07B9  1D03               	btfss	3,2
  2515  07BA  2F9F               	goto	l233
  2516                           
  2517                           ;main.c: 289: servoRotate120();
  2518  07BB  3187  270F  3187   	fcall	_servoRotate120
  2519  07BE  2F9F               	goto	l233
  2520  07BF                     __end_of_main:	
  2521                           
  2522                           	psect	text1
  2523  075C                     __ptext1:	
  2524 ;; *************** function _servoRotate90 *****************
  2525 ;; Defined at:
  2526 ;;		line 56 in file "main.c"
  2527 ;; Parameters:    Size  Location     Type
  2528 ;;		None
  2529 ;; Auto vars:     Size  Location     Type
  2530 ;;  i               2    1[COMMON] unsigned int 
  2531 ;; Return value:  Size  Location     Type
  2532 ;;                  1    wreg      void 
  2533 ;; Registers used:
  2534 ;;		wreg, status,2
  2535 ;; Tracked objects:
  2536 ;;		On entry : 0/0
  2537 ;;		On exit  : 0/0
  2538 ;;		Unchanged: 0/0
  2539 ;; Data sizes:     COMMON   BANK0   BANK1   BANK2   BANK3   BANK4   BANK5   BANK6   BANK7   BANK8   BANK9  BANK10  BANK1
      +1  BANK12  BANK13  BANK14  BANK15  BANK16  BANK17  BANK18  BANK19  BANK20  BANK21  BANK22  BANK23  BANK24  BANK25  BANK2
      +6  BANK27  BANK28  BANK29  BANK30  BANK31  BANK32  BANK33  BANK34  BANK35  BANK36  BANK37  BANK38  BANK39  BANK40  BANK4
      +1  BANK42  BANK43  BANK44  BANK45  BANK46  BANK47  BANK48  BANK49  BANK50
  2540 ;;      Params:         0       0       0       0       0       0       0       0       0       0       0       0       
      +0       0       0       0       0       0       0       0       0       0       0       0       0       0       0       
      +0       0       0       0       0       0       0       0       0       0       0       0       0       0       0       
      +0       0       0       0       0       0       0       0       0       0
  2541 ;;      Locals:         2       0       0       0       0       0       0       0       0       0       0       0       
      +0       0       0       0       0       0       0       0       0       0       0       0       0       0       0       
      +0       0       0       0       0       0       0       0       0       0       0       0       0       0       0       
      +0       0       0       0       0       0       0       0       0       0
  2542 ;;      Temps:          1       0       0       0       0       0       0       0       0       0       0       0       
      +0       0       0       0       0       0       0       0       0       0       0       0       0       0       0       
      +0       0       0       0       0       0       0       0       0       0       0       0       0       0       0       
      +0       0       0       0       0       0       0       0       0       0
  2543 ;;      Totals:         3       0       0       0       0       0       0       0       0       0       0       0       
      +0       0       0       0       0       0       0       0       0       0       0       0       0       0       0       
      +0       0       0       0       0       0       0       0       0       0       0       0       0       0       0       
      +0       0       0       0       0       0       0       0       0       0
  2544 ;;Total ram usage:        3 bytes
  2545 ;; Hardware stack levels used:    1
  2546 ;; This function calls:
  2547 ;;		Nothing
  2548 ;; This function is called by:
  2549 ;;		_main
  2550 ;; This function uses a non-reentrant model
  2551 ;;
  2552                           
  2553                           
  2554                           ;psect for function _servoRotate90
  2555  075C                     _servoRotate90:	
  2556  075C                     l165:	
  2557                           ;main.c: 59: {
  2558                           
  2559                           ;main.c: 58: while(PORTCbits.RC6 == 1)
  2560                           
  2561                           ;incstack = 0
  2562                           ; Regs used in _servoRotate90: [wreg+status,2]
  2563                           
  2564  075C  0140               	movlb	0	; select bank0
  2565  075D  1B0E               	btfsc	14,6	;volatile
  2566  075E  2F5C               	goto	l165
  2567                           
  2568                           ;main.c: 61: }
  2569                           ;main.c: 62: TRISC = 0b01000000;
  2570  075F  3040               	movlw	64
  2571  0760  0093               	movwf	19	;volatile
  2572                           
  2573                           ;main.c: 64: PORTCbits.RC2 = 0;
  2574  0761  110E               	bcf	14,2	;volatile
  2575                           
  2576                           ;main.c: 65: PORTCbits.RC3 = 1;
  2577  0762  158E               	bsf	14,3	;volatile
  2578                           
  2579                           ;main.c: 66: PORTCbits.RC7 = 1;
  2580  0763  178E               	bsf	14,7	;volatile
  2581                           
  2582                           ;main.c: 67: PORTCbits.RC5 = 1;
  2583  0764  168E               	bsf	14,5	;volatile
  2584                           
  2585                           ;main.c: 68: unsigned int i;
  2586                           ;main.c: 69: for(i=0;i<50;i++)
  2587  0765  01F1               	clrf	servoRotate90@i
  2588  0766  01F2               	clrf	servoRotate90@i+1
  2589  0767                     L1:	
  2590  0767  3000               	movlw	0
  2591  0768  0272               	subwf	servoRotate90@i+1,w
  2592  0769  3032               	movlw	50
  2593  076A  1903               	skipnz
  2594  076B  0271               	subwf	servoRotate90@i,w
  2595  076C  1803               	btfsc	3,0
  2596  076D  0008               	return
  2597                           
  2598                           ;main.c: 70: {
  2599                           ;main.c: 71: PORTB = 1;
  2600  076E  3001               	movlw	1
  2601  076F  0140               	movlb	0	; select bank0
  2602  0770  008D               	movwf	13	;volatile
  2603                           
  2604                           ;main.c: 72: _delay((unsigned long)((1.5)*(1000000/4000.0)));
  2605  0771  307D               	movlw	125
  2606  0772                     u657:	
  2607  0772  0B89               	decfsz	9,f
  2608  0773  2F72               	goto	u657
  2609                           
  2610                           ;main.c: 73: PORTB = 0;
  2611  0774  0140               	movlb	0	; select bank0
  2612  0775  018D               	clrf	13	;volatile
  2613                           
  2614                           ;main.c: 74: _delay((unsigned long)((18.5)*(1000000/4000.0)));
  2615  0776  3006               	movlw	6
  2616  0777  00F0               	movwf	??_servoRotate90
  2617  0778  3000               	movlw	0
  2618  0779                     u667:	
  2619  0779  0B89               	decfsz	9,f
  2620  077A  2F79               	goto	u667
  2621  077B  0BF0               	decfsz	??_servoRotate90,f
  2622  077C  2F79               	goto	u667
  2623  077D  3200               	nop2
  2624  077E  0000               	nop
  2625  077F  3001               	movlw	1
  2626  0780  07F1               	addwf	servoRotate90@i,f
  2627  0781  3000               	movlw	0
  2628  0782  3DF2               	addwfc	servoRotate90@i+1,f
  2629  0783  2F67               	goto	L1
  2630  0784                     __end_of_servoRotate90:	
  2631                           
  2632                           	psect	text2
  2633  0735                     __ptext2:	
  2634 ;; *************** function _servoRotate30 *****************
  2635 ;; Defined at:
  2636 ;;		line 34 in file "main.c"
  2637 ;; Parameters:    Size  Location     Type
  2638 ;;		None
  2639 ;; Auto vars:     Size  Location     Type
  2640 ;;  i               2    1[COMMON] unsigned int 
  2641 ;; Return value:  Size  Location     Type
  2642 ;;                  1    wreg      void 
  2643 ;; Registers used:
  2644 ;;		wreg, status,2
  2645 ;; Tracked objects:
  2646 ;;		On entry : 0/0
  2647 ;;		On exit  : 0/0
  2648 ;;		Unchanged: 0/0
  2649 ;; Data sizes:     COMMON   BANK0   BANK1   BANK2   BANK3   BANK4   BANK5   BANK6   BANK7   BANK8   BANK9  BANK10  BANK1
      +1  BANK12  BANK13  BANK14  BANK15  BANK16  BANK17  BANK18  BANK19  BANK20  BANK21  BANK22  BANK23  BANK24  BANK25  BANK2
      +6  BANK27  BANK28  BANK29  BANK30  BANK31  BANK32  BANK33  BANK34  BANK35  BANK36  BANK37  BANK38  BANK39  BANK40  BANK4
      +1  BANK42  BANK43  BANK44  BANK45  BANK46  BANK47  BANK48  BANK49  BANK50
  2650 ;;      Params:         0       0       0       0       0       0       0       0       0       0       0       0       
      +0       0       0       0       0       0       0       0       0       0       0       0       0       0       0       
      +0       0       0       0       0       0       0       0       0       0       0       0       0       0       0       
      +0       0       0       0       0       0       0       0       0       0
  2651 ;;      Locals:         2       0       0       0       0       0       0       0       0       0       0       0       
      +0       0       0       0       0       0       0       0       0       0       0       0       0       0       0       
      +0       0       0       0       0       0       0       0       0       0       0       0       0       0       0       
      +0       0       0       0       0       0       0       0       0       0
  2652 ;;      Temps:          1       0       0       0       0       0       0       0       0       0       0       0       
      +0       0       0       0       0       0       0       0       0       0       0       0       0       0       0       
      +0       0       0       0       0       0       0       0       0       0       0       0       0       0       0       
      +0       0       0       0       0       0       0       0       0       0
  2653 ;;      Totals:         3       0       0       0       0       0       0       0       0       0       0       0       
      +0       0       0       0       0       0       0       0       0       0       0       0       0       0       0       
      +0       0       0       0       0       0       0       0       0       0       0       0       0       0       0       
      +0       0       0       0       0       0       0       0       0       0
  2654 ;;Total ram usage:        3 bytes
  2655 ;; Hardware stack levels used:    1
  2656 ;; This function calls:
  2657 ;;		Nothing
  2658 ;; This function is called by:
  2659 ;;		_main
  2660 ;; This function uses a non-reentrant model
  2661 ;;
  2662                           
  2663                           
  2664                           ;psect for function _servoRotate30
  2665  0735                     _servoRotate30:	
  2666  0735                     l157:	
  2667                           ;main.c: 37: {
  2668                           
  2669                           ;main.c: 36: while(PORTCbits.RC6 == 1)
  2670                           
  2671                           ;incstack = 0
  2672                           ; Regs used in _servoRotate30: [wreg+status,2]
  2673                           
  2674  0735  0140               	movlb	0	; select bank0
  2675  0736  1B0E               	btfsc	14,6	;volatile
  2676  0737  2F35               	goto	l157
  2677                           
  2678                           ;main.c: 39: }
  2679                           ;main.c: 40: TRISC = 0b01000000;
  2680  0738  3040               	movlw	64
  2681  0739  0093               	movwf	19	;volatile
  2682                           
  2683                           ;main.c: 42: PORTCbits.RC2 = 0;
  2684  073A  110E               	bcf	14,2	;volatile
  2685                           
  2686                           ;main.c: 43: PORTCbits.RC3 = 1;
  2687  073B  158E               	bsf	14,3	;volatile
  2688                           
  2689                           ;main.c: 44: PORTCbits.RC7 = 1;
  2690  073C  178E               	bsf	14,7	;volatile
  2691                           
  2692                           ;main.c: 45: PORTCbits.RC5 = 1;
  2693  073D  168E               	bsf	14,5	;volatile
  2694                           
  2695                           ;main.c: 46: unsigned int i;
  2696                           ;main.c: 47: for(i=0;i<50;i++)
  2697  073E  01F1               	clrf	servoRotate30@i
  2698  073F  01F2               	clrf	servoRotate30@i+1
  2699  0740                     L2:	
  2700  0740  3000               	movlw	0
  2701  0741  0272               	subwf	servoRotate30@i+1,w
  2702  0742  3032               	movlw	50
  2703  0743  1903               	skipnz
  2704  0744  0271               	subwf	servoRotate30@i,w
  2705  0745  1803               	btfsc	3,0
  2706  0746  0008               	return
  2707                           
  2708                           ;main.c: 48: {
  2709                           ;main.c: 49: PORTB = 1;
  2710  0747  3001               	movlw	1
  2711  0748  0140               	movlb	0	; select bank0
  2712  0749  008D               	movwf	13	;volatile
  2713                           
  2714                           ;main.c: 50: _delay((unsigned long)((1.18)*(1000000/4000.0)));
  2715  074A  3062               	movlw	98
  2716  074B                     u677:	
  2717  074B  0B89               	decfsz	9,f
  2718  074C  2F4B               	goto	u677
  2719  074D  0000               	nop
  2720                           
  2721                           ;main.c: 51: PORTB = 0;
  2722  074E  0140               	movlb	0	; select bank0
  2723  074F  018D               	clrf	13	;volatile
  2724                           
  2725                           ;main.c: 52: _delay((unsigned long)((18.82)*(1000000/4000.0)));
  2726  0750  3007               	movlw	7
  2727  0751  00F0               	movwf	??_servoRotate30
  2728  0752  301B               	movlw	27
  2729  0753                     u687:	
  2730  0753  0B89               	decfsz	9,f
  2731  0754  2F53               	goto	u687
  2732  0755  0BF0               	decfsz	??_servoRotate30,f
  2733  0756  2F53               	goto	u687
  2734  0757  3001               	movlw	1
  2735  0758  07F1               	addwf	servoRotate30@i,f
  2736  0759  3000               	movlw	0
  2737  075A  3DF2               	addwfc	servoRotate30@i+1,f
  2738  075B  2F40               	goto	L2
  2739  075C                     __end_of_servoRotate30:	
  2740                           
  2741                           	psect	text3
  2742  070F                     __ptext3:	
  2743 ;; *************** function _servoRotate120 *****************
  2744 ;; Defined at:
  2745 ;;		line 78 in file "main.c"
  2746 ;; Parameters:    Size  Location     Type
  2747 ;;		None
  2748 ;; Auto vars:     Size  Location     Type
  2749 ;;  i               2    1[COMMON] unsigned int 
  2750 ;; Return value:  Size  Location     Type
  2751 ;;                  1    wreg      void 
  2752 ;; Registers used:
  2753 ;;		wreg, status,2
  2754 ;; Tracked objects:
  2755 ;;		On entry : 0/0
  2756 ;;		On exit  : 0/0
  2757 ;;		Unchanged: 0/0
  2758 ;; Data sizes:     COMMON   BANK0   BANK1   BANK2   BANK3   BANK4   BANK5   BANK6   BANK7   BANK8   BANK9  BANK10  BANK1
      +1  BANK12  BANK13  BANK14  BANK15  BANK16  BANK17  BANK18  BANK19  BANK20  BANK21  BANK22  BANK23  BANK24  BANK25  BANK2
      +6  BANK27  BANK28  BANK29  BANK30  BANK31  BANK32  BANK33  BANK34  BANK35  BANK36  BANK37  BANK38  BANK39  BANK40  BANK4
      +1  BANK42  BANK43  BANK44  BANK45  BANK46  BANK47  BANK48  BANK49  BANK50
  2759 ;;      Params:         0       0       0       0       0       0       0       0       0       0       0       0       
      +0       0       0       0       0       0       0       0       0       0       0       0       0       0       0       
      +0       0       0       0       0       0       0       0       0       0       0       0       0       0       0       
      +0       0       0       0       0       0       0       0       0       0
  2760 ;;      Locals:         2       0       0       0       0       0       0       0       0       0       0       0       
      +0       0       0       0       0       0       0       0       0       0       0       0       0       0       0       
      +0       0       0       0       0       0       0       0       0       0       0       0       0       0       0       
      +0       0       0       0       0       0       0       0       0       0
  2761 ;;      Temps:          1       0       0       0       0       0       0       0       0       0       0       0       
      +0       0       0       0       0       0       0       0       0       0       0       0       0       0       0       
      +0       0       0       0       0       0       0       0       0       0       0       0       0       0       0       
      +0       0       0       0       0       0       0       0       0       0
  2762 ;;      Totals:         3       0       0       0       0       0       0       0       0       0       0       0       
      +0       0       0       0       0       0       0       0       0       0       0       0       0       0       0       
      +0       0       0       0       0       0       0       0       0       0       0       0       0       0       0       
      +0       0       0       0       0       0       0       0       0       0
  2763 ;;Total ram usage:        3 bytes
  2764 ;; Hardware stack levels used:    1
  2765 ;; This function calls:
  2766 ;;		Nothing
  2767 ;; This function is called by:
  2768 ;;		_main
  2769 ;; This function uses a non-reentrant model
  2770 ;;
  2771                           
  2772                           
  2773                           ;psect for function _servoRotate120
  2774  070F                     _servoRotate120:	
  2775  070F                     l173:	
  2776                           ;main.c: 81: {
  2777                           
  2778                           ;main.c: 80: while(PORTCbits.RC6 == 1)
  2779                           
  2780                           ;incstack = 0
  2781                           ; Regs used in _servoRotate120: [wreg+status,2]
  2782                           
  2783  070F  0140               	movlb	0	; select bank0
  2784  0710  1B0E               	btfsc	14,6	;volatile
  2785  0711  2F0F               	goto	l173
  2786                           
  2787                           ;main.c: 83: }
  2788                           ;main.c: 84: TRISC = 0b01000000;
  2789  0712  3040               	movlw	64
  2790  0713  0093               	movwf	19	;volatile
  2791                           
  2792                           ;main.c: 86: PORTCbits.RC2 = 0;
  2793  0714  110E               	bcf	14,2	;volatile
  2794                           
  2795                           ;main.c: 87: PORTCbits.RC3 = 1;
  2796  0715  158E               	bsf	14,3	;volatile
  2797                           
  2798                           ;main.c: 88: PORTCbits.RC7 = 1;
  2799  0716  178E               	bsf	14,7	;volatile
  2800                           
  2801                           ;main.c: 89: PORTCbits.RC5 = 1;
  2802  0717  168E               	bsf	14,5	;volatile
  2803                           
  2804                           ;main.c: 90: unsigned int i;
  2805                           ;main.c: 91: for(i=0;i<50;i++)
  2806  0718  01F1               	clrf	servoRotate120@i
  2807  0719  01F2               	clrf	servoRotate120@i+1
  2808  071A                     L3:	
  2809  071A  3000               	movlw	0
  2810  071B  0272               	subwf	servoRotate120@i+1,w
  2811  071C  3032               	movlw	50
  2812  071D  1903               	skipnz
  2813  071E  0271               	subwf	servoRotate120@i,w
  2814  071F  1803               	btfsc	3,0
  2815  0720  0008               	return
  2816                           
  2817                           ;main.c: 92: {
  2818                           ;main.c: 93: PORTB = 1;
  2819  0721  3001               	movlw	1
  2820  0722  0140               	movlb	0	; select bank0
  2821  0723  008D               	movwf	13	;volatile
  2822                           
  2823                           ;main.c: 94: _delay((unsigned long)((1.68)*(1000000/4000.0)));
  2824  0724  308C               	movlw	140
  2825  0725                     u697:	
  2826  0725  0B89               	decfsz	9,f
  2827  0726  2F25               	goto	u697
  2828                           
  2829                           ;main.c: 95: PORTB = 0;
  2830  0727  0140               	movlb	0	; select bank0
  2831  0728  018D               	clrf	13	;volatile
  2832                           
  2833                           ;main.c: 96: _delay((unsigned long)((18.32)*(1000000/4000.0)));
  2834  0729  3006               	movlw	6
  2835  072A  00F0               	movwf	??_servoRotate120
  2836  072B  30F2               	movlw	242
  2837  072C                     u707:	
  2838  072C  0B89               	decfsz	9,f
  2839  072D  2F2C               	goto	u707
  2840  072E  0BF0               	decfsz	??_servoRotate120,f
  2841  072F  2F2C               	goto	u707
  2842  0730  3001               	movlw	1
  2843  0731  07F1               	addwf	servoRotate120@i,f
  2844  0732  3000               	movlw	0
  2845  0733  3DF2               	addwfc	servoRotate120@i+1,f
  2846  0734  2F1A               	goto	L3
  2847  0735                     __end_of_servoRotate120:	
  2848                           
  2849                           	psect	text4
  2850  06AF                     __ptext4:	
  2851 ;; *************** function _sensorReset *****************
  2852 ;; Defined at:
  2853 ;;		line 175 in file "main.c"
  2854 ;; Parameters:    Size  Location     Type
  2855 ;;		None
  2856 ;; Auto vars:     Size  Location     Type
  2857 ;;		None
  2858 ;; Return value:  Size  Location     Type
  2859 ;;                  1    wreg      void 
  2860 ;; Registers used:
  2861 ;;		wreg, fsr0l, fsr0h, status,2, status,0, pclath, cstack
  2862 ;; Tracked objects:
  2863 ;;		On entry : 0/0
  2864 ;;		On exit  : 0/0
  2865 ;;		Unchanged: 0/0
  2866 ;; Data sizes:     COMMON   BANK0   BANK1   BANK2   BANK3   BANK4   BANK5   BANK6   BANK7   BANK8   BANK9  BANK10  BANK1
      +1  BANK12  BANK13  BANK14  BANK15  BANK16  BANK17  BANK18  BANK19  BANK20  BANK21  BANK22  BANK23  BANK24  BANK25  BANK2
      +6  BANK27  BANK28  BANK29  BANK30  BANK31  BANK32  BANK33  BANK34  BANK35  BANK36  BANK37  BANK38  BANK39  BANK40  BANK4
      +1  BANK42  BANK43  BANK44  BANK45  BANK46  BANK47  BANK48  BANK49  BANK50
  2867 ;;      Params:         0       0       0       0       0       0       0       0       0       0       0       0       
      +0       0       0       0       0       0       0       0       0       0       0       0       0       0       0       
      +0       0       0       0       0       0       0       0       0       0       0       0       0       0       0       
      +0       0       0       0       0       0       0       0       0       0
  2868 ;;      Locals:         0       0       0       0       0       0       0       0       0       0       0       0       
      +0       0       0       0       0       0       0       0       0       0       0       0       0       0       0       
      +0       0       0       0       0       0       0       0       0       0       0       0       0       0       0       
      +0       0       0       0       0       0       0       0       0       0
  2869 ;;      Temps:          0       0       0       0       0       0       0       0       0       0       0       0       
      +0       0       0       0       0       0       0       0       0       0       0       0       0       0       0       
      +0       0       0       0       0       0       0       0       0       0       0       0       0       0       0       
      +0       0       0       0       0       0       0       0       0       0
  2870 ;;      Totals:         0       0       0       0       0       0       0       0       0       0       0       0       
      +0       0       0       0       0       0       0       0       0       0       0       0       0       0       0       
      +0       0       0       0       0       0       0       0       0       0       0       0       0       0       0       
      +0       0       0       0       0       0       0       0       0       0
  2871 ;;Total ram usage:        0 bytes
  2872 ;; Hardware stack levels used:    1
  2873 ;; Hardware stack levels required when called:    3
  2874 ;; This function calls:
  2875 ;;		_printf
  2876 ;;		_servoRotate0
  2877 ;; This function is called by:
  2878 ;;		_main
  2879 ;; This function uses a non-reentrant model
  2880 ;;
  2881                           
  2882                           
  2883                           ;psect for function _sensorReset
  2884  06AF                     _sensorReset:	
  2885                           
  2886                           ;main.c: 177: printf("REEEEEEEEEEE");
  2887                           
  2888                           ;incstack = 0
  2889                           ; Regs used in _sensorReset: [wreg-fsr0h+status,2+status,0+pclath+cstack]
  2890  06AF  3026               	movlw	low (STR_1| (0+32768))
  2891  06B0  00F2               	movwf	printf@f
  2892  06B1  3088               	movlw	high (STR_1| (0+32768))
  2893  06B2  00F3               	movwf	printf@f+1
  2894  06B3  3186  26D6  3186   	fcall	_printf
  2895  06B6                     l204:	
  2896                           ;main.c: 179: {
  2897                           
  2898                           ;main.c: 178: while(PORTCbits.RC6 == 1)
  2899                           
  2900  06B6  0140               	movlb	0	; select bank0
  2901  06B7  1B0E               	btfsc	14,6	;volatile
  2902  06B8  2EB6               	goto	l204
  2903                           
  2904                           ;main.c: 181: }
  2905                           ;main.c: 182: TRISC = 0b01000000;
  2906  06B9  3040               	movlw	64
  2907  06BA  0093               	movwf	19	;volatile
  2908                           
  2909                           ;main.c: 184: PORTCbits.RC2 = 0;
  2910  06BB  110E               	bcf	14,2	;volatile
  2911                           
  2912                           ;main.c: 185: PORTCbits.RC3 = 1;
  2913  06BC  158E               	bsf	14,3	;volatile
  2914                           
  2915                           ;main.c: 186: PORTCbits.RC7 = 1;
  2916  06BD  178E               	bsf	14,7	;volatile
  2917                           
  2918                           ;main.c: 187: PORTCbits.RC5 = 1;
  2919  06BE  168E               	bsf	14,5	;volatile
  2920                           
  2921                           ;main.c: 189: servoRotate0();
  2922  06BF  3186  26F1         	fcall	_servoRotate0
  2923  06C1  0008               	return
  2924  06C2                     __end_of_sensorReset:	
  2925                           
  2926                           	psect	text5
  2927  06F1                     __ptext5:	
  2928 ;; *************** function _servoRotate0 *****************
  2929 ;; Defined at:
  2930 ;;		line 22 in file "main.c"
  2931 ;; Parameters:    Size  Location     Type
  2932 ;;		None
  2933 ;; Auto vars:     Size  Location     Type
  2934 ;;  i               2    1[COMMON] unsigned int 
  2935 ;; Return value:  Size  Location     Type
  2936 ;;                  1    wreg      void 
  2937 ;; Registers used:
  2938 ;;		wreg, status,2
  2939 ;; Tracked objects:
  2940 ;;		On entry : 0/0
  2941 ;;		On exit  : 0/0
  2942 ;;		Unchanged: 0/0
  2943 ;; Data sizes:     COMMON   BANK0   BANK1   BANK2   BANK3   BANK4   BANK5   BANK6   BANK7   BANK8   BANK9  BANK10  BANK1
      +1  BANK12  BANK13  BANK14  BANK15  BANK16  BANK17  BANK18  BANK19  BANK20  BANK21  BANK22  BANK23  BANK24  BANK25  BANK2
      +6  BANK27  BANK28  BANK29  BANK30  BANK31  BANK32  BANK33  BANK34  BANK35  BANK36  BANK37  BANK38  BANK39  BANK40  BANK4
      +1  BANK42  BANK43  BANK44  BANK45  BANK46  BANK47  BANK48  BANK49  BANK50
  2944 ;;      Params:         0       0       0       0       0       0       0       0       0       0       0       0       
      +0       0       0       0       0       0       0       0       0       0       0       0       0       0       0       
      +0       0       0       0       0       0       0       0       0       0       0       0       0       0       0       
      +0       0       0       0       0       0       0       0       0       0
  2945 ;;      Locals:         2       0       0       0       0       0       0       0       0       0       0       0       
      +0       0       0       0       0       0       0       0       0       0       0       0       0       0       0       
      +0       0       0       0       0       0       0       0       0       0       0       0       0       0       0       
      +0       0       0       0       0       0       0       0       0       0
  2946 ;;      Temps:          1       0       0       0       0       0       0       0       0       0       0       0       
      +0       0       0       0       0       0       0       0       0       0       0       0       0       0       0       
      +0       0       0       0       0       0       0       0       0       0       0       0       0       0       0       
      +0       0       0       0       0       0       0       0       0       0
  2947 ;;      Totals:         3       0       0       0       0       0       0       0       0       0       0       0       
      +0       0       0       0       0       0       0       0       0       0       0       0       0       0       0       
      +0       0       0       0       0       0       0       0       0       0       0       0       0       0       0       
      +0       0       0       0       0       0       0       0       0       0
  2948 ;;Total ram usage:        3 bytes
  2949 ;; Hardware stack levels used:    1
  2950 ;; This function calls:
  2951 ;;		Nothing
  2952 ;; This function is called by:
  2953 ;;		_sensorReset
  2954 ;; This function uses a non-reentrant model
  2955 ;;
  2956                           
  2957                           
  2958                           ;psect for function _servoRotate0
  2959  06F1                     _servoRotate0:	
  2960                           
  2961                           ;main.c: 24: unsigned int i;
  2962                           ;main.c: 25: for(i=0;i<50;i++)
  2963                           
  2964                           ;incstack = 0
  2965                           ; Regs used in _servoRotate0: [wreg+status,2]
  2966  06F1  01F1               	clrf	servoRotate0@i
  2967  06F2  01F2               	clrf	servoRotate0@i+1
  2968  06F3                     L4:	
  2969  06F3  3000               	movlw	0
  2970  06F4  0272               	subwf	servoRotate0@i+1,w
  2971  06F5  3032               	movlw	50
  2972  06F6  1903               	skipnz
  2973  06F7  0271               	subwf	servoRotate0@i,w
  2974  06F8  1803               	btfsc	3,0
  2975  06F9  0008               	return
  2976                           
  2977                           ;main.c: 26: {
  2978                           ;main.c: 27: PORTB = 1;
  2979  06FA  3001               	movlw	1
  2980  06FB  0140               	movlb	0	; select bank0
  2981  06FC  008D               	movwf	13	;volatile
  2982                           
  2983                           ;main.c: 28: _delay((unsigned long)((1)*(1000000/4000.0)));
  2984  06FD  3053               	movlw	83
  2985  06FE                     u717:	
  2986  06FE  0B89               	decfsz	9,f
  2987  06FF  2EFE               	goto	u717
  2988  0700  0000               	nop
  2989                           
  2990                           ;main.c: 29: PORTB = 0;
  2991  0701  0140               	movlb	0	; select bank0
  2992  0702  018D               	clrf	13	;volatile
  2993                           
  2994                           ;main.c: 30: _delay((unsigned long)((19)*(1000000/4000.0)));
  2995  0703  3007               	movlw	7
  2996  0704  00F0               	movwf	??_servoRotate0
  2997  0705  302A               	movlw	42
  2998  0706                     u727:	
  2999  0706  0B89               	decfsz	9,f
  3000  0707  2F06               	goto	u727
  3001  0708  0BF0               	decfsz	??_servoRotate0,f
  3002  0709  2F06               	goto	u727
  3003  070A  3001               	movlw	1
  3004  070B  07F1               	addwf	servoRotate0@i,f
  3005  070C  3000               	movlw	0
  3006  070D  3DF2               	addwfc	servoRotate0@i+1,f
  3007  070E  2EF3               	goto	L4
  3008  070F                     __end_of_servoRotate0:	
  3009                           
  3010                           	psect	text6
  3011  069E                     __ptext6:	
  3012 ;; *************** function _sensorPing *****************
  3013 ;; Defined at:
  3014 ;;		line 234 in file "main.c"
  3015 ;; Parameters:    Size  Location     Type
  3016 ;;		None
  3017 ;; Auto vars:     Size  Location     Type
  3018 ;;		None
  3019 ;; Return value:  Size  Location     Type
  3020 ;;                  1    wreg      void 
  3021 ;; Registers used:
  3022 ;;		wreg, fsr0l, fsr0h, status,2, status,0, pclath, cstack
  3023 ;; Tracked objects:
  3024 ;;		On entry : 0/0
  3025 ;;		On exit  : 0/0
  3026 ;;		Unchanged: 0/0
  3027 ;; Data sizes:     COMMON   BANK0   BANK1   BANK2   BANK3   BANK4   BANK5   BANK6   BANK7   BANK8   BANK9  BANK10  BANK1
      +1  BANK12  BANK13  BANK14  BANK15  BANK16  BANK17  BANK18  BANK19  BANK20  BANK21  BANK22  BANK23  BANK24  BANK25  BANK2
      +6  BANK27  BANK28  BANK29  BANK30  BANK31  BANK32  BANK33  BANK34  BANK35  BANK36  BANK37  BANK38  BANK39  BANK40  BANK4
      +1  BANK42  BANK43  BANK44  BANK45  BANK46  BANK47  BANK48  BANK49  BANK50
  3028 ;;      Params:         0       0       0       0       0       0       0       0       0       0       0       0       
      +0       0       0       0       0       0       0       0       0       0       0       0       0       0       0       
      +0       0       0       0       0       0       0       0       0       0       0       0       0       0       0       
      +0       0       0       0       0       0       0       0       0       0
  3029 ;;      Locals:         0       0       0       0       0       0       0       0       0       0       0       0       
      +0       0       0       0       0       0       0       0       0       0       0       0       0       0       0       
      +0       0       0       0       0       0       0       0       0       0       0       0       0       0       0       
      +0       0       0       0       0       0       0       0       0       0
  3030 ;;      Temps:          0       0       0       0       0       0       0       0       0       0       0       0       
      +0       0       0       0       0       0       0       0       0       0       0       0       0       0       0       
      +0       0       0       0       0       0       0       0       0       0       0       0       0       0       0       
      +0       0       0       0       0       0       0       0       0       0
  3031 ;;      Totals:         0       0       0       0       0       0       0       0       0       0       0       0       
      +0       0       0       0       0       0       0       0       0       0       0       0       0       0       0       
      +0       0       0       0       0       0       0       0       0       0       0       0       0       0       0       
      +0       0       0       0       0       0       0       0       0       0
  3032 ;;Total ram usage:        0 bytes
  3033 ;; Hardware stack levels used:    1
  3034 ;; Hardware stack levels required when called:    3
  3035 ;; This function calls:
  3036 ;;		_printf
  3037 ;; This function is called by:
  3038 ;;		_main
  3039 ;; This function uses a non-reentrant model
  3040 ;;
  3041                           
  3042                           
  3043                           ;psect for function _sensorPing
  3044  069E                     _sensorPing:	
  3045                           
  3046                           ;main.c: 236: printf("to be replaced for the ping sensoring");
  3047                           
  3048                           ;incstack = 0
  3049                           ; Regs used in _sensorPing: [wreg-fsr0h+status,2+status,0+pclath+cstack]
  3050  069E  3000               	movlw	low (STR_2| (0+32768))
  3051  069F  00F2               	movwf	printf@f
  3052  06A0  3088               	movlw	high (STR_2| (0+32768))
  3053  06A1  00F3               	movwf	printf@f+1
  3054  06A2  3186  26D6  3186   	fcall	_printf
  3055  06A5                     l219:	
  3056                           ;main.c: 238: {
  3057                           
  3058                           ;main.c: 237: while(PORTCbits.RC6 == 1)
  3059                           
  3060  06A5  0140               	movlb	0	; select bank0
  3061  06A6  1B0E               	btfsc	14,6	;volatile
  3062  06A7  2EA5               	goto	l219
  3063                           
  3064                           ;main.c: 240: }
  3065                           ;main.c: 241: TRISC = 0b01000000;
  3066  06A8  3040               	movlw	64
  3067  06A9  0093               	movwf	19	;volatile
  3068                           
  3069                           ;main.c: 243: PORTCbits.RC2 = 0;
  3070  06AA  110E               	bcf	14,2	;volatile
  3071                           
  3072                           ;main.c: 244: PORTCbits.RC3 = 1;
  3073  06AB  158E               	bsf	14,3	;volatile
  3074                           
  3075                           ;main.c: 245: PORTCbits.RC7 = 1;
  3076  06AC  178E               	bsf	14,7	;volatile
  3077                           
  3078                           ;main.c: 246: PORTCbits.RC5 = 1;
  3079  06AD  168E               	bsf	14,5	;volatile
  3080  06AE  0008               	return
  3081  06AF                     __end_of_sensorPing:	
  3082                           
  3083                           	psect	text7
  3084  06D6                     __ptext7:	
  3085 ;; *************** function _printf *****************
  3086 ;; Defined at:
  3087 ;;		line 464 in file "C:\Program Files (x86)\Microchip\xc8\v1.42\sources\common\doprnt.c"
  3088 ;; Parameters:    Size  Location     Type
  3089 ;;  f               2    2[COMMON] PTR const unsigned char 
  3090 ;;		 -> STR_2(38), STR_1(13), 
  3091 ;; Auto vars:     Size  Location     Type
  3092 ;;  tmpval          4    0        struct .
  3093 ;;  cp              2    0        PTR const unsigned char 
  3094 ;;  len             2    0        unsigned int 
  3095 ;;  val             2    0        unsigned int 
  3096 ;;  c               1    8[COMMON] char 
  3097 ;;  ap              1    7[COMMON] PTR void [1]
  3098 ;;		 -> ?_printf(2), 
  3099 ;;  flag            1    0        unsigned char 
  3100 ;;  prec            1    0        char 
  3101 ;; Return value:  Size  Location     Type
  3102 ;;                  2    2[COMMON] int 
  3103 ;; Registers used:
  3104 ;;		wreg, fsr0l, fsr0h, status,2, status,0, pclath, cstack
  3105 ;; Tracked objects:
  3106 ;;		On entry : 0/0
  3107 ;;		On exit  : 0/0
  3108 ;;		Unchanged: 0/0
  3109 ;; Data sizes:     COMMON   BANK0   BANK1   BANK2   BANK3   BANK4   BANK5   BANK6   BANK7   BANK8   BANK9  BANK10  BANK1
      +1  BANK12  BANK13  BANK14  BANK15  BANK16  BANK17  BANK18  BANK19  BANK20  BANK21  BANK22  BANK23  BANK24  BANK25  BANK2
      +6  BANK27  BANK28  BANK29  BANK30  BANK31  BANK32  BANK33  BANK34  BANK35  BANK36  BANK37  BANK38  BANK39  BANK40  BANK4
      +1  BANK42  BANK43  BANK44  BANK45  BANK46  BANK47  BANK48  BANK49  BANK50
  3110 ;;      Params:         2       0       0       0       0       0       0       0       0       0       0       0       
      +0       0       0       0       0       0       0       0       0       0       0       0       0       0       0       
      +0       0       0       0       0       0       0       0       0       0       0       0       0       0       0       
      +0       0       0       0       0       0       0       0       0       0
  3111 ;;      Locals:         2       0       0       0       0       0       0       0       0       0       0       0       
      +0       0       0       0       0       0       0       0       0       0       0       0       0       0       0       
      +0       0       0       0       0       0       0       0       0       0       0       0       0       0       0       
      +0       0       0       0       0       0       0       0       0       0
  3112 ;;      Temps:          3       0       0       0       0       0       0       0       0       0       0       0       
      +0       0       0       0       0       0       0       0       0       0       0       0       0       0       0       
      +0       0       0       0       0       0       0       0       0       0       0       0       0       0       0       
      +0       0       0       0       0       0       0       0       0       0
  3113 ;;      Totals:         7       0       0       0       0       0       0       0       0       0       0       0       
      +0       0       0       0       0       0       0       0       0       0       0       0       0       0       0       
      +0       0       0       0       0       0       0       0       0       0       0       0       0       0       0       
      +0       0       0       0       0       0       0       0       0       0
  3114 ;;Total ram usage:        7 bytes
  3115 ;; Hardware stack levels used:    1
  3116 ;; Hardware stack levels required when called:    2
  3117 ;; This function calls:
  3118 ;;		_putch
  3119 ;; This function is called by:
  3120 ;;		_sensorReset
  3121 ;;		_sensorPing
  3122 ;; This function uses a non-reentrant model
  3123 ;;
  3124                           
  3125                           
  3126                           ;psect for function _printf
  3127  06D6                     _printf:	
  3128                           
  3129                           ;doprnt.c: 466: va_list ap;
  3130                           ;doprnt.c: 499: signed char c;
  3131                           ;doprnt.c: 506: signed char prec;
  3132                           ;doprnt.c: 508: unsigned char flag;
  3133                           ;doprnt.c: 523: union {
  3134                           ;doprnt.c: 524: unsigned long vd;
  3135                           ;doprnt.c: 525: double integ;
  3136                           ;doprnt.c: 526: } tmpval;
  3137                           ;doprnt.c: 528: unsigned int val;
  3138                           ;doprnt.c: 529: unsigned len;
  3139                           ;doprnt.c: 530: const char * cp;
  3140                           ;doprnt.c: 533: *ap = __va_start();
  3141                           
  3142                           ;incstack = 0
  3143                           ; Regs used in _printf: [wreg-fsr0h+status,2+status,0+pclath+cstack]
  3144  06D6  3074               	movlw	(low ((?_printf| 0+2)))& (0+255)
  3145  06D7  00F4               	movwf	??_printf
  3146  06D8  0874               	movf	??_printf,w
  3147  06D9  00F7               	movwf	printf@ap
  3148  06DA                     l1048:	
  3149                           ;doprnt.c: 543: }
  3150                           ;doprnt.c: 1422: {
  3151                           
  3152                           ;doprnt.c: 542: continue;
  3153                           
  3154                           ;doprnt.c: 536: while(c = *f++) {
  3155                           
  3156  06DA  0873               	movf	printf@f+1,w
  3157  06DB  00F5               	movwf	??_printf+1
  3158  06DC  0872               	movf	printf@f,w
  3159  06DD  00F4               	movwf	??_printf
  3160  06DE  0AF2               	incf	printf@f,f
  3161  06DF  1903               	skipnz
  3162  06E0  0AF3               	incf	printf@f+1,f
  3163  06E1  0874               	movf	??_printf,w
  3164  06E2  0084               	movwf	4
  3165  06E3  0875               	movf	??_printf+1,w
  3166  06E4  0085               	movwf	5
  3167  06E5  0800               	movf	0,w	;code access
  3168  06E6  00F6               	movwf	??_printf+2
  3169  06E7  0876               	movf	??_printf+2,w
  3170  06E8  00F8               	movwf	printf@c
  3171  06E9  0878               	movf	printf@c,w
  3172  06EA  1903               	btfsc	3,2
  3173  06EB  0008               	return
  3174                           
  3175                           ;doprnt.c: 540: {
  3176                           ;doprnt.c: 541: (putch(c) );
  3177  06EC  0878               	movf	printf@c,w
  3178  06ED  3186  266B  3186   	fcall	_putch
  3179  06F0  2EDA               	goto	l1048
  3180  06F1                     __end_of_printf:	
  3181                           ;doprnt.c: 1469: }
  3182                           ;doprnt.c: 1533: }
  3183                           ;doprnt.c: 1540: return 0;
  3184                           ;	Return value of _printf is never used
  3185                           
  3186                           
  3187                           	psect	text8
  3188  066B                     __ptext8:	
  3189 ;; *************** function _putch *****************
  3190 ;; Defined at:
  3191 ;;		line 111 in file "mcc_generated_files/eusart.c"
  3192 ;; Parameters:    Size  Location     Type
  3193 ;;  txData          1    wreg     unsigned char 
  3194 ;; Auto vars:     Size  Location     Type
  3195 ;;  txData          1    1[COMMON] unsigned char 
  3196 ;; Return value:  Size  Location     Type
  3197 ;;                  1    wreg      void 
  3198 ;; Registers used:
  3199 ;;		wreg, status,2, status,0, pclath, cstack
  3200 ;; Tracked objects:
  3201 ;;		On entry : 0/0
  3202 ;;		On exit  : 0/0
  3203 ;;		Unchanged: 0/0
  3204 ;; Data sizes:     COMMON   BANK0   BANK1   BANK2   BANK3   BANK4   BANK5   BANK6   BANK7   BANK8   BANK9  BANK10  BANK1
      +1  BANK12  BANK13  BANK14  BANK15  BANK16  BANK17  BANK18  BANK19  BANK20  BANK21  BANK22  BANK23  BANK24  BANK25  BANK2
      +6  BANK27  BANK28  BANK29  BANK30  BANK31  BANK32  BANK33  BANK34  BANK35  BANK36  BANK37  BANK38  BANK39  BANK40  BANK4
      +1  BANK42  BANK43  BANK44  BANK45  BANK46  BANK47  BANK48  BANK49  BANK50
  3205 ;;      Params:         0       0       0       0       0       0       0       0       0       0       0       0       
      +0       0       0       0       0       0       0       0       0       0       0       0       0       0       0       
      +0       0       0       0       0       0       0       0       0       0       0       0       0       0       0       
      +0       0       0       0       0       0       0       0       0       0
  3206 ;;      Locals:         1       0       0       0       0       0       0       0       0       0       0       0       
      +0       0       0       0       0       0       0       0       0       0       0       0       0       0       0       
      +0       0       0       0       0       0       0       0       0       0       0       0       0       0       0       
      +0       0       0       0       0       0       0       0       0       0
  3207 ;;      Temps:          0       0       0       0       0       0       0       0       0       0       0       0       
      +0       0       0       0       0       0       0       0       0       0       0       0       0       0       0       
      +0       0       0       0       0       0       0       0       0       0       0       0       0       0       0       
      +0       0       0       0       0       0       0       0       0       0
  3208 ;;      Totals:         1       0       0       0       0       0       0       0       0       0       0       0       
      +0       0       0       0       0       0       0       0       0       0       0       0       0       0       0       
      +0       0       0       0       0       0       0       0       0       0       0       0       0       0       0       
      +0       0       0       0       0       0       0       0       0       0
  3209 ;;Total ram usage:        1 bytes
  3210 ;; Hardware stack levels used:    1
  3211 ;; Hardware stack levels required when called:    1
  3212 ;; This function calls:
  3213 ;;		_EUSART_Write
  3214 ;; This function is called by:
  3215 ;;		_printf
  3216 ;; This function uses a non-reentrant model
  3217 ;;
  3218                           
  3219                           
  3220                           ;psect for function _putch
  3221  066B                     _putch:	
  3222                           
  3223                           ;incstack = 0
  3224                           ; Regs used in _putch: [wreg+status,2+status,0+pclath+cstack]
  3225                           ;putch@txData stored from wreg
  3226  066B  00F1               	movwf	putch@txData
  3227                           
  3228                           ;eusart.c: 113: EUSART_Write(txData);
  3229  066C  0871               	movf	putch@txData,w
  3230  066D  3186  2677         	fcall	_EUSART_Write
  3231  066F  0008               	return
  3232  0670                     __end_of_putch:	
  3233                           
  3234                           	psect	text9
  3235  0677                     __ptext9:	
  3236 ;; *************** function _EUSART_Write *****************
  3237 ;; Defined at:
  3238 ;;		line 97 in file "mcc_generated_files/eusart.c"
  3239 ;; Parameters:    Size  Location     Type
  3240 ;;  txData          1    wreg     unsigned char 
  3241 ;; Auto vars:     Size  Location     Type
  3242 ;;  txData          1    0[COMMON] unsigned char 
  3243 ;; Return value:  Size  Location     Type
  3244 ;;                  1    wreg      void 
  3245 ;; Registers used:
  3246 ;;		wreg
  3247 ;; Tracked objects:
  3248 ;;		On entry : 0/0
  3249 ;;		On exit  : 0/0
  3250 ;;		Unchanged: 0/0
  3251 ;; Data sizes:     COMMON   BANK0   BANK1   BANK2   BANK3   BANK4   BANK5   BANK6   BANK7   BANK8   BANK9  BANK10  BANK1
      +1  BANK12  BANK13  BANK14  BANK15  BANK16  BANK17  BANK18  BANK19  BANK20  BANK21  BANK22  BANK23  BANK24  BANK25  BANK2
      +6  BANK27  BANK28  BANK29  BANK30  BANK31  BANK32  BANK33  BANK34  BANK35  BANK36  BANK37  BANK38  BANK39  BANK40  BANK4
      +1  BANK42  BANK43  BANK44  BANK45  BANK46  BANK47  BANK48  BANK49  BANK50
  3252 ;;      Params:         0       0       0       0       0       0       0       0       0       0       0       0       
      +0       0       0       0       0       0       0       0       0       0       0       0       0       0       0       
      +0       0       0       0       0       0       0       0       0       0       0       0       0       0       0       
      +0       0       0       0       0       0       0       0       0       0
  3253 ;;      Locals:         1       0       0       0       0       0       0       0       0       0       0       0       
      +0       0       0       0       0       0       0       0       0       0       0       0       0       0       0       
      +0       0       0       0       0       0       0       0       0       0       0       0       0       0       0       
      +0       0       0       0       0       0       0       0       0       0
  3254 ;;      Temps:          0       0       0       0       0       0       0       0       0       0       0       0       
      +0       0       0       0       0       0       0       0       0       0       0       0       0       0       0       
      +0       0       0       0       0       0       0       0       0       0       0       0       0       0       0       
      +0       0       0       0       0       0       0       0       0       0
  3255 ;;      Totals:         1       0       0       0       0       0       0       0       0       0       0       0       
      +0       0       0       0       0       0       0       0       0       0       0       0       0       0       0       
      +0       0       0       0       0       0       0       0       0       0       0       0       0       0       0       
      +0       0       0       0       0       0       0       0       0       0
  3256 ;;Total ram usage:        1 bytes
  3257 ;; Hardware stack levels used:    1
  3258 ;; This function calls:
  3259 ;;		Nothing
  3260 ;; This function is called by:
  3261 ;;		_putch
  3262 ;; This function uses a non-reentrant model
  3263 ;;
  3264                           
  3265                           
  3266                           ;psect for function _EUSART_Write
  3267  0677                     _EUSART_Write:	
  3268                           
  3269                           ;incstack = 0
  3270                           ; Regs used in _EUSART_Write: [wreg]
  3271                           ;EUSART_Write@txData stored from wreg
  3272  0677  00F0               	movwf	EUSART_Write@txData
  3273  0678                     l31:	
  3274                           ;eusart.c: 100: {
  3275                           
  3276                           ;eusart.c: 99: while(0 == PIR3bits.TXIF)
  3277                           
  3278  0678  014E               	movlb	14	; select bank14
  3279  0679  1E0F               	btfss	15,4	;volatile
  3280  067A  2E78               	goto	l31
  3281                           
  3282                           ;eusart.c: 101: }
  3283                           ;eusart.c: 103: TX1REG = txData;
  3284  067B  0870               	movf	EUSART_Write@txData,w
  3285  067C  0142               	movlb	2	; select bank2
  3286  067D  009A               	movwf	26	;volatile
  3287  067E  0008               	return
  3288  067F                     __end_of_EUSART_Write:	
  3289                           
  3290                           	psect	text10
  3291  068E                     __ptext10:	
  3292 ;; *************** function _sendADCResults *****************
  3293 ;; Defined at:
  3294 ;;		line 249 in file "main.c"
  3295 ;; Parameters:    Size  Location     Type
  3296 ;;		None
  3297 ;; Auto vars:     Size  Location     Type
  3298 ;;  results         2    4[COMMON] unsigned int 
  3299 ;; Return value:  Size  Location     Type
  3300 ;;                  1    wreg      void 
  3301 ;; Registers used:
  3302 ;;		wreg, pclath, cstack
  3303 ;; Tracked objects:
  3304 ;;		On entry : 0/0
  3305 ;;		On exit  : 0/0
  3306 ;;		Unchanged: 0/0
  3307 ;; Data sizes:     COMMON   BANK0   BANK1   BANK2   BANK3   BANK4   BANK5   BANK6   BANK7   BANK8   BANK9  BANK10  BANK1
      +1  BANK12  BANK13  BANK14  BANK15  BANK16  BANK17  BANK18  BANK19  BANK20  BANK21  BANK22  BANK23  BANK24  BANK25  BANK2
      +6  BANK27  BANK28  BANK29  BANK30  BANK31  BANK32  BANK33  BANK34  BANK35  BANK36  BANK37  BANK38  BANK39  BANK40  BANK4
      +1  BANK42  BANK43  BANK44  BANK45  BANK46  BANK47  BANK48  BANK49  BANK50
  3308 ;;      Params:         0       0       0       0       0       0       0       0       0       0       0       0       
      +0       0       0       0       0       0       0       0       0       0       0       0       0       0       0       
      +0       0       0       0       0       0       0       0       0       0       0       0       0       0       0       
      +0       0       0       0       0       0       0       0       0       0
  3309 ;;      Locals:         2       0       0       0       0       0       0       0       0       0       0       0       
      +0       0       0       0       0       0       0       0       0       0       0       0       0       0       0       
      +0       0       0       0       0       0       0       0       0       0       0       0       0       0       0       
      +0       0       0       0       0       0       0       0       0       0
  3310 ;;      Temps:          0       0       0       0       0       0       0       0       0       0       0       0       
      +0       0       0       0       0       0       0       0       0       0       0       0       0       0       0       
      +0       0       0       0       0       0       0       0       0       0       0       0       0       0       0       
      +0       0       0       0       0       0       0       0       0       0
  3311 ;;      Totals:         2       0       0       0       0       0       0       0       0       0       0       0       
      +0       0       0       0       0       0       0       0       0       0       0       0       0       0       0       
      +0       0       0       0       0       0       0       0       0       0       0       0       0       0       0       
      +0       0       0       0       0       0       0       0       0       0
  3312 ;;Total ram usage:        2 bytes
  3313 ;; Hardware stack levels used:    1
  3314 ;; Hardware stack levels required when called:    1
  3315 ;; This function calls:
  3316 ;;		_ADC_conversion_results
  3317 ;; This function is called by:
  3318 ;;		_main
  3319 ;; This function uses a non-reentrant model
  3320 ;;
  3321                           
  3322                           
  3323                           ;psect for function _sendADCResults
  3324  068E                     _sendADCResults:	
  3325  068E                     l225:	
  3326                           ;main.c: 253: {
  3327                           
  3328                           ;main.c: 251: unsigned results;
  3329                           ;main.c: 252: while(PORTCbits.RC6 == 1)
  3330                           
  3331                           ;incstack = 0
  3332                           ; Regs used in _sendADCResults: [wreg+pclath+cstack]
  3333                           
  3334  068E  0140               	movlb	0	; select bank0
  3335  068F  1B0E               	btfsc	14,6	;volatile
  3336  0690  2E8E               	goto	l225
  3337                           
  3338                           ;main.c: 255: }
  3339                           ;main.c: 256: TRISC = 0b01000000;
  3340  0691  3040               	movlw	64
  3341  0692  0093               	movwf	19	;volatile
  3342                           
  3343                           ;main.c: 258: PORTCbits.RC2 = 0;
  3344  0693  110E               	bcf	14,2	;volatile
  3345                           
  3346                           ;main.c: 259: PORTCbits.RC3 = 1;
  3347  0694  158E               	bsf	14,3	;volatile
  3348                           
  3349                           ;main.c: 260: PORTCbits.RC7 = 1;
  3350  0695  178E               	bsf	14,7	;volatile
  3351                           
  3352                           ;main.c: 261: PORTCbits.RC5 = 1;
  3353  0696  168E               	bsf	14,5	;volatile
  3354                           
  3355                           ;main.c: 262: results = ADC_conversion_results();
  3356  0697  3186  267F         	fcall	_ADC_conversion_results
  3357  0699  0871               	movf	?_ADC_conversion_results+1,w
  3358  069A  00F5               	movwf	sendADCResults@results+1
  3359  069B  0870               	movf	?_ADC_conversion_results,w
  3360  069C  00F4               	movwf	sendADCResults@results
  3361  069D  0008               	return
  3362  069E                     __end_of_sendADCResults:	
  3363                           
  3364                           	psect	text11
  3365  067F                     __ptext11:	
  3366 ;; *************** function _ADC_conversion_results *****************
  3367 ;; Defined at:
  3368 ;;		line 224 in file "main.c"
  3369 ;; Parameters:    Size  Location     Type
  3370 ;;		None
  3371 ;; Auto vars:     Size  Location     Type
  3372 ;;  result          2    2[COMMON] unsigned int 
  3373 ;; Return value:  Size  Location     Type
  3374 ;;                  2    0[COMMON] unsigned int 
  3375 ;; Registers used:
  3376 ;;		wreg
  3377 ;; Tracked objects:
  3378 ;;		On entry : 0/0
  3379 ;;		On exit  : 0/0
  3380 ;;		Unchanged: 0/0
  3381 ;; Data sizes:     COMMON   BANK0   BANK1   BANK2   BANK3   BANK4   BANK5   BANK6   BANK7   BANK8   BANK9  BANK10  BANK1
      +1  BANK12  BANK13  BANK14  BANK15  BANK16  BANK17  BANK18  BANK19  BANK20  BANK21  BANK22  BANK23  BANK24  BANK25  BANK2
      +6  BANK27  BANK28  BANK29  BANK30  BANK31  BANK32  BANK33  BANK34  BANK35  BANK36  BANK37  BANK38  BANK39  BANK40  BANK4
      +1  BANK42  BANK43  BANK44  BANK45  BANK46  BANK47  BANK48  BANK49  BANK50
  3382 ;;      Params:         2       0       0       0       0       0       0       0       0       0       0       0       
      +0       0       0       0       0       0       0       0       0       0       0       0       0       0       0       
      +0       0       0       0       0       0       0       0       0       0       0       0       0       0       0       
      +0       0       0       0       0       0       0       0       0       0
  3383 ;;      Locals:         2       0       0       0       0       0       0       0       0       0       0       0       
      +0       0       0       0       0       0       0       0       0       0       0       0       0       0       0       
      +0       0       0       0       0       0       0       0       0       0       0       0       0       0       0       
      +0       0       0       0       0       0       0       0       0       0
  3384 ;;      Temps:          0       0       0       0       0       0       0       0       0       0       0       0       
      +0       0       0       0       0       0       0       0       0       0       0       0       0       0       0       
      +0       0       0       0       0       0       0       0       0       0       0       0       0       0       0       
      +0       0       0       0       0       0       0       0       0       0
  3385 ;;      Totals:         4       0       0       0       0       0       0       0       0       0       0       0       
      +0       0       0       0       0       0       0       0       0       0       0       0       0       0       0       
      +0       0       0       0       0       0       0       0       0       0       0       0       0       0       0       
      +0       0       0       0       0       0       0       0       0       0
  3386 ;;Total ram usage:        4 bytes
  3387 ;; Hardware stack levels used:    1
  3388 ;; This function calls:
  3389 ;;		Nothing
  3390 ;; This function is called by:
  3391 ;;		_sendADCResults
  3392 ;; This function uses a non-reentrant model
  3393 ;;
  3394                           
  3395                           
  3396                           ;psect for function _ADC_conversion_results
  3397  067F                     _ADC_conversion_results:	
  3398                           
  3399                           ;main.c: 225: ADPCH = 1;
  3400                           
  3401                           ;incstack = 0
  3402                           ; Regs used in _ADC_conversion_results: [wreg]
  3403  067F  3001               	movlw	1
  3404  0680  0141               	movlb	1	; select bank1
  3405  0681  009E               	movwf	30	;volatile
  3406                           
  3407                           ;main.c: 227: ADCON0 |= 1;
  3408  0682  1413               	bsf	19,0	;volatile
  3409  0683                     l213:	
  3410                           ;main.c: 229: while(ADCON0 & 1);
  3411                           
  3412  0683  1813               	btfsc	19,0	;volatile
  3413  0684  2E83               	goto	l213
  3414                           
  3415                           ;main.c: 230: unsigned result = (unsigned)((ADRESH << 8) + ADRESL);
  3416  0685  080D               	movf	13,w	;volatile
  3417  0686  00F3               	movwf	ADC_conversion_results@result+1
  3418  0687  080C               	movf	12,w	;volatile
  3419  0688  00F2               	movwf	ADC_conversion_results@result
  3420                           
  3421                           ;main.c: 231: return result;
  3422  0689  0873               	movf	ADC_conversion_results@result+1,w
  3423  068A  00F1               	movwf	?_ADC_conversion_results+1
  3424  068B  0872               	movf	ADC_conversion_results@result,w
  3425  068C  00F0               	movwf	?_ADC_conversion_results
  3426  068D  0008               	return
  3427  068E                     __end_of_ADC_conversion_results:	
  3428                           
  3429                           	psect	text12
  3430  07BF                     __ptext12:	
  3431 ;; *************** function _receive_msg *****************
  3432 ;; Defined at:
  3433 ;;		line 112 in file "main.c"
  3434 ;; Parameters:    Size  Location     Type
  3435 ;;		None
  3436 ;; Auto vars:     Size  Location     Type
  3437 ;;  results         1    1[COMMON] unsigned char 
  3438 ;; Return value:  Size  Location     Type
  3439 ;;                  1    wreg      unsigned char 
  3440 ;; Registers used:
  3441 ;;		wreg, status,2, status,0, pclath, cstack
  3442 ;; Tracked objects:
  3443 ;;		On entry : 0/0
  3444 ;;		On exit  : 0/0
  3445 ;;		Unchanged: 0/0
  3446 ;; Data sizes:     COMMON   BANK0   BANK1   BANK2   BANK3   BANK4   BANK5   BANK6   BANK7   BANK8   BANK9  BANK10  BANK1
      +1  BANK12  BANK13  BANK14  BANK15  BANK16  BANK17  BANK18  BANK19  BANK20  BANK21  BANK22  BANK23  BANK24  BANK25  BANK2
      +6  BANK27  BANK28  BANK29  BANK30  BANK31  BANK32  BANK33  BANK34  BANK35  BANK36  BANK37  BANK38  BANK39  BANK40  BANK4
      +1  BANK42  BANK43  BANK44  BANK45  BANK46  BANK47  BANK48  BANK49  BANK50
  3447 ;;      Params:         0       0       0       0       0       0       0       0       0       0       0       0       
      +0       0       0       0       0       0       0       0       0       0       0       0       0       0       0       
      +0       0       0       0       0       0       0       0       0       0       0       0       0       0       0       
      +0       0       0       0       0       0       0       0       0       0
  3448 ;;      Locals:         1       0       0       0       0       0       0       0       0       0       0       0       
      +0       0       0       0       0       0       0       0       0       0       0       0       0       0       0       
      +0       0       0       0       0       0       0       0       0       0       0       0       0       0       0       
      +0       0       0       0       0       0       0       0       0       0
  3449 ;;      Temps:          1       0       0       0       0       0       0       0       0       0       0       0       
      +0       0       0       0       0       0       0       0       0       0       0       0       0       0       0       
      +0       0       0       0       0       0       0       0       0       0       0       0       0       0       0       
      +0       0       0       0       0       0       0       0       0       0
  3450 ;;      Totals:         2       0       0       0       0       0       0       0       0       0       0       0       
      +0       0       0       0       0       0       0       0       0       0       0       0       0       0       0       
      +0       0       0       0       0       0       0       0       0       0       0       0       0       0       0       
      +0       0       0       0       0       0       0       0       0       0
  3451 ;;Total ram usage:        2 bytes
  3452 ;; Hardware stack levels used:    1
  3453 ;; Hardware stack levels required when called:    1
  3454 ;; This function calls:
  3455 ;;		_set_receive
  3456 ;; This function is called by:
  3457 ;;		_main
  3458 ;; This function uses a non-reentrant model
  3459 ;;
  3460                           
  3461                           
  3462                           ;psect for function _receive_msg
  3463  07BF                     _receive_msg:	
  3464                           
  3465                           ;main.c: 114: set_receive();
  3466                           
  3467                           ;incstack = 0
  3468                           ; Regs used in _receive_msg: [wreg+status,2+status,0+pclath+cstack]
  3469  07BF  3186  2670  3187   	fcall	_set_receive
  3470  07C2                     l184:	
  3471                           ;main.c: 117: {
  3472                           
  3473                           ;main.c: 115: unsigned char results;
  3474                           ;main.c: 116: while(PORTCbits.RC6 == 0)
  3475                           
  3476  07C2  0140               	movlb	0	; select bank0
  3477  07C3  1B0E               	btfsc	14,6	;volatile
  3478  07C4  2FF9               	goto	l902
  3479  07C5  2FC2               	goto	l184
  3480  07C6                     l188:	
  3481                           ;main.c: 119: }
  3482                           ;main.c: 120: while(PORTCbits.RC6 == 1)
  3483                           
  3484                           
  3485                           ;main.c: 121: {
  3486                           ;main.c: 122: if(PORTCbits.RC5 == 0 &&
  3487                           ;main.c: 123: PORTCbits.RC7 == 0 &&
  3488                           ;main.c: 124: PORTCbits.RC3 == 0 &&
  3489                           ;main.c: 125: PORTCbits.RC2 == 0)
  3490  07C6  1E8E               	btfss	14,5	;volatile
  3491  07C7  1B8E               	btfsc	14,7	;volatile
  3492  07C8  2FCE               	goto	l189
  3493  07C9  1D8E               	btfss	14,3	;volatile
  3494  07CA  190E               	btfsc	14,2	;volatile
  3495  07CB  2FCE               	goto	l189
  3496                           
  3497                           ;main.c: 126: {
  3498                           ;main.c: 127: results = 0x0;
  3499  07CC  01F1               	clrf	receive_msg@results
  3500                           
  3501                           ;main.c: 128: }
  3502  07CD  2FF9               	goto	l902
  3503  07CE                     l189:	
  3504                           
  3505                           ;main.c: 129: else if(PORTCbits.RC5 == 0 &&
  3506                           ;main.c: 130: PORTCbits.RC7 == 0 &&
  3507                           ;main.c: 131: PORTCbits.RC3 == 0 &&
  3508                           ;main.c: 132: PORTCbits.RC2 == 1)
  3509  07CE  1E8E               	btfss	14,5	;volatile
  3510  07CF  1B8E               	btfsc	14,7	;volatile
  3511  07D0  2FD7               	goto	l191
  3512  07D1  1D8E               	btfss	14,3	;volatile
  3513  07D2  1D0E               	btfss	14,2	;volatile
  3514  07D3  2FD7               	goto	l191
  3515                           
  3516                           ;main.c: 133: {
  3517                           ;main.c: 134: results = 0x1;
  3518  07D4  01F1               	clrf	receive_msg@results
  3519  07D5  0AF1               	incf	receive_msg@results,f
  3520                           
  3521                           ;main.c: 135: }
  3522  07D6  2FF9               	goto	l902
  3523  07D7                     l191:	
  3524                           
  3525                           ;main.c: 136: else if(PORTCbits.RC5 == 0 &&
  3526                           ;main.c: 137: PORTCbits.RC7 == 0 &&
  3527                           ;main.c: 138: PORTCbits.RC3 == 1 &&
  3528                           ;main.c: 139: PORTCbits.RC2 == 0)
  3529  07D7  1E8E               	btfss	14,5	;volatile
  3530  07D8  1B8E               	btfsc	14,7	;volatile
  3531  07D9  2FDF               	goto	l193
  3532  07DA  198E               	btfsc	14,3	;volatile
  3533  07DB  190E               	btfsc	14,2	;volatile
  3534  07DC  2FDF               	goto	l193
  3535                           
  3536                           ;main.c: 140: {
  3537                           ;main.c: 141: results = 0x2;
  3538  07DD  3002               	movlw	2
  3539  07DE  2FF6               	goto	L7
  3540  07DF                     l193:	
  3541                           ;main.c: 142: }
  3542                           
  3543                           
  3544                           ;main.c: 143: else if(PORTCbits.RC5 == 0 &&
  3545                           ;main.c: 144: PORTCbits.RC7 == 0 &&
  3546                           ;main.c: 145: PORTCbits.RC3 == 1 &&
  3547                           ;main.c: 146: PORTCbits.RC2 == 1)
  3548  07DF  1E8E               	btfss	14,5	;volatile
  3549  07E0  1B8E               	btfsc	14,7	;volatile
  3550  07E1  2FE7               	goto	l195
  3551  07E2  198E               	btfsc	14,3	;volatile
  3552  07E3  1D0E               	btfss	14,2	;volatile
  3553  07E4  2FE7               	goto	l195
  3554                           
  3555                           ;main.c: 147: {
  3556                           ;main.c: 148: results = 0x3;
  3557  07E5  3003               	movlw	3
  3558  07E6  2FF6               	goto	L7
  3559  07E7                     l195:	
  3560                           ;main.c: 149: }
  3561                           
  3562                           
  3563                           ;main.c: 150: else if(PORTCbits.RC5 == 0 &&
  3564                           ;main.c: 151: PORTCbits.RC7 == 1 &&
  3565                           ;main.c: 152: PORTCbits.RC3 == 0 &&
  3566                           ;main.c: 153: PORTCbits.RC2 == 0)
  3567  07E7  1E8E               	btfss	14,5	;volatile
  3568  07E8  1F8E               	btfss	14,7	;volatile
  3569  07E9  2FEF               	goto	l197
  3570  07EA  1D8E               	btfss	14,3	;volatile
  3571  07EB  190E               	btfsc	14,2	;volatile
  3572  07EC  2FEF               	goto	l197
  3573                           
  3574                           ;main.c: 154: {
  3575                           ;main.c: 155: results = 0x4;
  3576  07ED  3004               	movlw	4
  3577  07EE  2FF6               	goto	L7
  3578  07EF                     l197:	
  3579                           ;main.c: 156: }
  3580                           
  3581                           
  3582                           ;main.c: 157: else if(PORTCbits.RC5 == 0 &&
  3583                           ;main.c: 158: PORTCbits.RC7 == 1 &&
  3584                           ;main.c: 159: PORTCbits.RC3 == 0 &&
  3585                           ;main.c: 160: PORTCbits.RC2 == 1)
  3586  07EF  1E8E               	btfss	14,5	;volatile
  3587  07F0  1F8E               	btfss	14,7	;volatile
  3588  07F1  2FF9               	goto	l902
  3589  07F2  1D8E               	btfss	14,3	;volatile
  3590  07F3  1D0E               	btfss	14,2	;volatile
  3591  07F4  2FF9               	goto	l902
  3592                           
  3593                           ;main.c: 161: {
  3594                           ;main.c: 162: results = 0x5;
  3595  07F5  3005               	movlw	5
  3596  07F6                     L7:	
  3597  07F6  00F0               	movwf	??_receive_msg
  3598  07F7  0870               	movf	??_receive_msg,w
  3599  07F8  00F1               	movwf	receive_msg@results
  3600  07F9                     l902:	
  3601  07F9  1B0E               	btfsc	14,6	;volatile
  3602  07FA  2FC6               	goto	l188
  3603                           
  3604                           ;main.c: 163: }
  3605                           ;main.c: 164: }
  3606                           ;main.c: 165: return results;
  3607  07FB  0871               	movf	receive_msg@results,w
  3608  07FC  0008               	return
  3609  07FD                     __end_of_receive_msg:	
  3610                           
  3611                           	psect	text13
  3612  0670                     __ptext13:	
  3613 ;; *************** function _set_receive *****************
  3614 ;; Defined at:
  3615 ;;		line 101 in file "main.c"
  3616 ;; Parameters:    Size  Location     Type
  3617 ;;		None
  3618 ;; Auto vars:     Size  Location     Type
  3619 ;;		None
  3620 ;; Return value:  Size  Location     Type
  3621 ;;                  1    wreg      void 
  3622 ;; Registers used:
  3623 ;;		wreg, status,2
  3624 ;; Tracked objects:
  3625 ;;		On entry : 0/0
  3626 ;;		On exit  : 0/0
  3627 ;;		Unchanged: 0/0
  3628 ;; Data sizes:     COMMON   BANK0   BANK1   BANK2   BANK3   BANK4   BANK5   BANK6   BANK7   BANK8   BANK9  BANK10  BANK1
      +1  BANK12  BANK13  BANK14  BANK15  BANK16  BANK17  BANK18  BANK19  BANK20  BANK21  BANK22  BANK23  BANK24  BANK25  BANK2
      +6  BANK27  BANK28  BANK29  BANK30  BANK31  BANK32  BANK33  BANK34  BANK35  BANK36  BANK37  BANK38  BANK39  BANK40  BANK4
      +1  BANK42  BANK43  BANK44  BANK45  BANK46  BANK47  BANK48  BANK49  BANK50
  3629 ;;      Params:         0       0       0       0       0       0       0       0       0       0       0       0       
      +0       0       0       0       0       0       0       0       0       0       0       0       0       0       0       
      +0       0       0       0       0       0       0       0       0       0       0       0       0       0       0       
      +0       0       0       0       0       0       0       0       0       0
  3630 ;;      Locals:         0       0       0       0       0       0       0       0       0       0       0       0       
      +0       0       0       0       0       0       0       0       0       0       0       0       0       0       0       
      +0       0       0       0       0       0       0       0       0       0       0       0       0       0       0       
      +0       0       0       0       0       0       0       0       0       0
  3631 ;;      Temps:          0       0       0       0       0       0       0       0       0       0       0       0       
      +0       0       0       0       0       0       0       0       0       0       0       0       0       0       0       
      +0       0       0       0       0       0       0       0       0       0       0       0       0       0       0       
      +0       0       0       0       0       0       0       0       0       0
  3632 ;;      Totals:         0       0       0       0       0       0       0       0       0       0       0       0       
      +0       0       0       0       0       0       0       0       0       0       0       0       0       0       0       
      +0       0       0       0       0       0       0       0       0       0       0       0       0       0       0       
      +0       0       0       0       0       0       0       0       0       0
  3633 ;;Total ram usage:        0 bytes
  3634 ;; Hardware stack levels used:    1
  3635 ;; This function calls:
  3636 ;;		Nothing
  3637 ;; This function is called by:
  3638 ;;		_receive_msg
  3639 ;; This function uses a non-reentrant model
  3640 ;;
  3641                           
  3642                           
  3643                           ;psect for function _set_receive
  3644  0670                     _set_receive:	
  3645                           
  3646                           ;main.c: 107: ANSELC = 0;
  3647                           
  3648                           ;incstack = 0
  3649                           ; Regs used in _set_receive: [wreg+status,2]
  3650  0670  017E               	movlb	62	; select bank62
  3651  0671  01CE               	clrf	78	;volatile
  3652                           
  3653                           ;main.c: 108: PORTC = 0;
  3654  0672  0140               	movlb	0	; select bank0
  3655  0673  018E               	clrf	14	;volatile
  3656                           
  3657                           ;main.c: 109: TRISC = 0b11101100;
  3658  0674  30EC               	movlw	236
  3659  0675  0093               	movwf	19	;volatile
  3660  0676  0008               	return
  3661  0677                     __end_of_set_receive:	
  3662                           
  3663                           	psect	text14
  3664  06C2                     __ptext14:	
  3665 ;; *************** function _ADC_Init *****************
  3666 ;; Defined at:
  3667 ;;		line 191 in file "main.c"
  3668 ;; Parameters:    Size  Location     Type
  3669 ;;		None
  3670 ;; Auto vars:     Size  Location     Type
  3671 ;;		None
  3672 ;; Return value:  Size  Location     Type
  3673 ;;                  1    wreg      void 
  3674 ;; Registers used:
  3675 ;;		wreg, status,2
  3676 ;; Tracked objects:
  3677 ;;		On entry : 0/0
  3678 ;;		On exit  : 0/0
  3679 ;;		Unchanged: 0/0
  3680 ;; Data sizes:     COMMON   BANK0   BANK1   BANK2   BANK3   BANK4   BANK5   BANK6   BANK7   BANK8   BANK9  BANK10  BANK1
      +1  BANK12  BANK13  BANK14  BANK15  BANK16  BANK17  BANK18  BANK19  BANK20  BANK21  BANK22  BANK23  BANK24  BANK25  BANK2
      +6  BANK27  BANK28  BANK29  BANK30  BANK31  BANK32  BANK33  BANK34  BANK35  BANK36  BANK37  BANK38  BANK39  BANK40  BANK4
      +1  BANK42  BANK43  BANK44  BANK45  BANK46  BANK47  BANK48  BANK49  BANK50
  3681 ;;      Params:         0       0       0       0       0       0       0       0       0       0       0       0       
      +0       0       0       0       0       0       0       0       0       0       0       0       0       0       0       
      +0       0       0       0       0       0       0       0       0       0       0       0       0       0       0       
      +0       0       0       0       0       0       0       0       0       0
  3682 ;;      Locals:         0       0       0       0       0       0       0       0       0       0       0       0       
      +0       0       0       0       0       0       0       0       0       0       0       0       0       0       0       
      +0       0       0       0       0       0       0       0       0       0       0       0       0       0       0       
      +0       0       0       0       0       0       0       0       0       0
  3683 ;;      Temps:          0       0       0       0       0       0       0       0       0       0       0       0       
      +0       0       0       0       0       0       0       0       0       0       0       0       0       0       0       
      +0       0       0       0       0       0       0       0       0       0       0       0       0       0       0       
      +0       0       0       0       0       0       0       0       0       0
  3684 ;;      Totals:         0       0       0       0       0       0       0       0       0       0       0       0       
      +0       0       0       0       0       0       0       0       0       0       0       0       0       0       0       
      +0       0       0       0       0       0       0       0       0       0       0       0       0       0       0       
      +0       0       0       0       0       0       0       0       0       0
  3685 ;;Total ram usage:        0 bytes
  3686 ;; Hardware stack levels used:    1
  3687 ;; This function calls:
  3688 ;;		Nothing
  3689 ;; This function is called by:
  3690 ;;		_main
  3691 ;; This function uses a non-reentrant model
  3692 ;;
  3693                           
  3694                           
  3695                           ;psect for function _ADC_Init
  3696  06C2                     _ADC_Init:	
  3697                           
  3698                           ;main.c: 208: TRISA = 0b11111110;
  3699                           
  3700                           ;incstack = 0
  3701                           ; Regs used in _ADC_Init: [wreg+status,2]
  3702  06C2  30FE               	movlw	254
  3703  06C3  0140               	movlb	0	; select bank0
  3704  06C4  0091               	movwf	17	;volatile
  3705                           
  3706                           ;main.c: 209: TRISAbits.TRISA1 = 1;
  3707  06C5  1491               	bsf	17,1	;volatile
  3708                           
  3709                           ;main.c: 210: ANSELAbits.ANSA1 = 1;
  3710  06C6  017E               	movlb	62	; select bank62
  3711  06C7  14B8               	bsf	56,1	;volatile
  3712                           
  3713                           ;main.c: 211: ADCON1 = 0;
  3714  06C8  0141               	movlb	1	; select bank1
  3715  06C9  0194               	clrf	20	;volatile
  3716                           
  3717                           ;main.c: 212: ADCON2 = 0;
  3718  06CA  0195               	clrf	21	;volatile
  3719                           
  3720                           ;main.c: 213: ADCON3 = 0;
  3721  06CB  0196               	clrf	22	;volatile
  3722                           
  3723                           ;main.c: 214: ADACT = 0;
  3724  06CC  0199               	clrf	25	;volatile
  3725                           
  3726                           ;main.c: 215: ADSTAT = 0;
  3727  06CD  0197               	clrf	23	;volatile
  3728                           
  3729                           ;main.c: 216: ADCAP = 0;
  3730  06CE  019B               	clrf	27	;volatile
  3731                           
  3732                           ;main.c: 217: ADPRE = 0;
  3733  06CF  019C               	clrf	28	;volatile
  3734                           
  3735                           ;main.c: 218: ADCON0 = 0b10000100;
  3736  06D0  3084               	movlw	132
  3737  06D1  0093               	movwf	19	;volatile
  3738                           
  3739                           ;main.c: 219: ADREF = 0;
  3740  06D2  019A               	clrf	26	;volatile
  3741                           
  3742                           ;main.c: 220: ADPCH = 0b00000001;
  3743  06D3  3001               	movlw	1
  3744  06D4  009E               	movwf	30	;volatile
  3745  06D5  0008               	return
  3746  06D6                     __end_of_ADC_Init:	
  3747  007E                     btemp	set	126	;btemp
  3748  007E                     wtemp0	set	126


Data Sizes:
    Strings     51
    Constant    0
    Data        0
    BSS         0
    Persistent  0
    Stack       0

Auto Spaces:
    Space          Size  Autos    Used
    COMMON           14     11      11
    BANK0            80      0       0
    BANK1            80      0       0
    BANK2            80      0       0
    BANK3            80      0       0
    BANK4            80      0       0
    BANK5            80      0       0
    BANK6            80      0       0
    BANK7            80      0       0
    BANK8            80      0       0
    BANK9            80      0       0
    BANK10           80      0       0
    BANK11           80      0       0
    BANK12           80      0       0
    BANK13           80      0       0
    BANK14           80      0       0
    BANK15           80      0       0
    BANK16           80      0       0
    BANK17           80      0       0
    BANK18           80      0       0
    BANK19           80      0       0
    BANK20           80      0       0
    BANK21           80      0       0
    BANK22           80      0       0
    BANK23           80      0       0
    BANK24           80      0       0
    BANK25           80      0       0
    BANK26           80      0       0
    BANK27           80      0       0
    BANK28           80      0       0
    BANK29           80      0       0
    BANK30           80      0       0
    BANK31           80      0       0
    BANK32           80      0       0
    BANK33           80      0       0
    BANK34           80      0       0
    BANK35           80      0       0
    BANK36           80      0       0
    BANK37           80      0       0
    BANK38           80      0       0
    BANK39           80      0       0
    BANK40           80      0       0
    BANK41           80      0       0
    BANK42           80      0       0
    BANK43           80      0       0
    BANK44           80      0       0
    BANK45           80      0       0
    BANK46           80      0       0
    BANK47           80      0       0
    BANK48           80      0       0
    BANK49           80      0       0
    BANK50           80      0       0

Pointer List with Targets:

    printf@f	PTR const unsigned char  size(2) Largest target is 38
		 -> STR_2(CODE[38]), STR_1(CODE[13]), 

    printf@ap	PTR void [1] size(1) Largest target is 2
		 -> ?_printf(COMMON[2]), 


Critical Paths under _main in COMMON

    _sensorReset->_printf
    _sensorPing->_printf
    _printf->_putch
    _putch->_EUSART_Write
    _sendADCResults->_ADC_conversion_results

Critical Paths under _main in BANK0

    None.

Critical Paths under _main in BANK1

    None.

Critical Paths under _main in BANK2

    None.

Critical Paths under _main in BANK3

    None.

Critical Paths under _main in BANK4

    None.

Critical Paths under _main in BANK5

    None.

Critical Paths under _main in BANK6

    None.

Critical Paths under _main in BANK7

    None.

Critical Paths under _main in BANK8

    None.

Critical Paths under _main in BANK9

    None.

Critical Paths under _main in BANK10

    None.

Critical Paths under _main in BANK11

    None.

Critical Paths under _main in BANK12

    None.

Critical Paths under _main in BANK13

    None.

Critical Paths under _main in BANK14

    None.

Critical Paths under _main in BANK15

    None.

Critical Paths under _main in BANK16

    None.

Critical Paths under _main in BANK17

    None.

Critical Paths under _main in BANK18

    None.

Critical Paths under _main in BANK19

    None.

Critical Paths under _main in BANK20

    None.

Critical Paths under _main in BANK21

    None.

Critical Paths under _main in BANK22

    None.

Critical Paths under _main in BANK23

    None.

Critical Paths under _main in BANK24

    None.

Critical Paths under _main in BANK25

    None.

Critical Paths under _main in BANK26

    None.

Critical Paths under _main in BANK27

    None.

Critical Paths under _main in BANK28

    None.

Critical Paths under _main in BANK29

    None.

Critical Paths under _main in BANK30

    None.

Critical Paths under _main in BANK31

    None.

Critical Paths under _main in BANK32

    None.

Critical Paths under _main in BANK33

    None.

Critical Paths under _main in BANK34

    None.

Critical Paths under _main in BANK35

    None.

Critical Paths under _main in BANK36

    None.

Critical Paths under _main in BANK37

    None.

Critical Paths under _main in BANK38

    None.

Critical Paths under _main in BANK39

    None.

Critical Paths under _main in BANK40

    None.

Critical Paths under _main in BANK41

    None.

Critical Paths under _main in BANK42

    None.

Critical Paths under _main in BANK43

    None.

Critical Paths under _main in BANK44

    None.

Critical Paths under _main in BANK45

    None.

Critical Paths under _main in BANK46

    None.

Critical Paths under _main in BANK47

    None.

Critical Paths under _main in BANK48

    None.

Critical Paths under _main in BANK49

    None.

Critical Paths under _main in BANK50

    None.

Call Graph Tables:

 ---------------------------------------------------------------------------------
 (Depth) Function   	        Calls       Base Space   Used Autos Params    Refs
 ---------------------------------------------------------------------------------
 (0) _main                                                 2     2      0     656
                                              9 COMMON     2     2      0
                           _ADC_Init
                        _receive_msg
                     _sendADCResults
                         _sensorPing
                        _sensorReset
                     _servoRotate120
                      _servoRotate30
                      _servoRotate90
 ---------------------------------------------------------------------------------
 (1) _servoRotate90                                        3     3      0      30
                                              0 COMMON     3     3      0
 ---------------------------------------------------------------------------------
 (1) _servoRotate30                                        3     3      0      30
                                              0 COMMON     3     3      0
 ---------------------------------------------------------------------------------
 (1) _servoRotate120                                       3     3      0      30
                                              0 COMMON     3     3      0
 ---------------------------------------------------------------------------------
 (1) _sensorReset                                          0     0      0     212
                             _printf
                       _servoRotate0
 ---------------------------------------------------------------------------------
 (2) _servoRotate0                                         3     3      0      30
                                              0 COMMON     3     3      0
 ---------------------------------------------------------------------------------
 (1) _sensorPing                                           0     0      0     182
                             _printf
 ---------------------------------------------------------------------------------
 (2) _printf                                              19    17      2     182
                                              2 COMMON     7     5      2
                              _putch
 ---------------------------------------------------------------------------------
 (3) _putch                                                1     1      0      30
                                              1 COMMON     1     1      0
                       _EUSART_Write
 ---------------------------------------------------------------------------------
 (4) _EUSART_Write                                         1     1      0      15
                                              0 COMMON     1     1      0
 ---------------------------------------------------------------------------------
 (1) _sendADCResults                                       2     2      0      24
                                              4 COMMON     2     2      0
             _ADC_conversion_results
 ---------------------------------------------------------------------------------
 (2) _ADC_conversion_results                               4     2      2      23
                                              0 COMMON     4     2      2
 ---------------------------------------------------------------------------------
 (1) _receive_msg                                          2     2      0      15
                                              0 COMMON     2     2      0
                        _set_receive
 ---------------------------------------------------------------------------------
 (2) _set_receive                                          0     0      0       0
 ---------------------------------------------------------------------------------
 (1) _ADC_Init                                             0     0      0       0
 ---------------------------------------------------------------------------------
 Estimated maximum stack depth 4
 ---------------------------------------------------------------------------------

 Call Graph Graphs:

 _main (ROOT)
   _ADC_Init
   _receive_msg
     _set_receive
   _sendADCResults
     _ADC_conversion_results
   _sensorPing
     _printf
       _putch
         _EUSART_Write
   _sensorReset
     _printf
       _putch
         _EUSART_Write
     _servoRotate0
   _servoRotate120
   _servoRotate30
   _servoRotate90

 Address spaces:
Name               Size   Autos  Total    Cost      Usage
BIGRAM             FF0      0       0       0        0.0%
EEDATA             100      0       0       0        0.0%
NULL                 0      0       0       0        0.0%
CODE                 0      0       0       0        0.0%
BITCOMMON            E      0       0       1        0.0%
BITSFR0              0      0       0       1        0.0%
SFR0                 0      0       0       1        0.0%
COMMON               E      B       B       2       78.6%
BITSFR1              0      0       0       2        0.0%
SFR1                 0      0       0       2        0.0%
BITSFR2              0      0       0       3        0.0%
SFR2                 0      0       0       3        0.0%
STACK                0      0       0       3        0.0%
BITBANK0            50      0       0       4        0.0%
BITSFR3              0      0       0       4        0.0%
SFR3                 0      0       0       4        0.0%
BANK0               50      0       0       5        0.0%
BITSFR4              0      0       0       5        0.0%
SFR4                 0      0       0       5        0.0%
BITBANK1            50      0       0       6        0.0%
BITSFR5              0      0       0       6        0.0%
SFR5                 0      0       0       6        0.0%
BANK1               50      0       0       7        0.0%
BITSFR6              0      0       0       7        0.0%
SFR6                 0      0       0       7        0.0%
BITBANK2            50      0       0       8        0.0%
BITSFR7              0      0       0       8        0.0%
SFR7                 0      0       0       8        0.0%
BANK2               50      0       0       9        0.0%
BITSFR8              0      0       0       9        0.0%
SFR8                 0      0       0       9        0.0%
BITBANK3            50      0       0      10        0.0%
BITSFR9              0      0       0      10        0.0%
SFR9                 0      0       0      10        0.0%
BANK3               50      0       0      11        0.0%
BITSFR10             0      0       0      11        0.0%
SFR10                0      0       0      11        0.0%
BITBANK4            50      0       0      12        0.0%
BITSFR11             0      0       0      12        0.0%
SFR11                0      0       0      12        0.0%
BANK4               50      0       0      13        0.0%
BITSFR12             0      0       0      13        0.0%
SFR12                0      0       0      13        0.0%
BITBANK5            50      0       0      14        0.0%
BITSFR13             0      0       0      14        0.0%
SFR13                0      0       0      14        0.0%
BANK5               50      0       0      15        0.0%
BITSFR14             0      0       0      15        0.0%
SFR14                0      0       0      15        0.0%
BITBANK6            50      0       0      16        0.0%
BITSFR15             0      0       0      16        0.0%
SFR15                0      0       0      16        0.0%
BANK6               50      0       0      17        0.0%
BITSFR16             0      0       0      17        0.0%
SFR16                0      0       0      17        0.0%
BITBANK7            50      0       0      18        0.0%
BITSFR17             0      0       0      18        0.0%
SFR17                0      0       0      18        0.0%
BANK7               50      0       0      19        0.0%
BITSFR18             0      0       0      19        0.0%
SFR18                0      0       0      19        0.0%
BITBANK8            50      0       0      20        0.0%
BITSFR19             0      0       0      20        0.0%
SFR19                0      0       0      20        0.0%
BANK8               50      0       0      21        0.0%
BITSFR20             0      0       0      21        0.0%
SFR20                0      0       0      21        0.0%
BITBANK9            50      0       0      22        0.0%
BITSFR21             0      0       0      22        0.0%
SFR21                0      0       0      22        0.0%
BANK9               50      0       0      23        0.0%
BITSFR22             0      0       0      23        0.0%
SFR22                0      0       0      23        0.0%
BITBANK10           50      0       0      24        0.0%
BITSFR23             0      0       0      24        0.0%
SFR23                0      0       0      24        0.0%
BANK10              50      0       0      25        0.0%
BITSFR24             0      0       0      25        0.0%
SFR24                0      0       0      25        0.0%
BITBANK11           50      0       0      26        0.0%
BITSFR25             0      0       0      26        0.0%
SFR25                0      0       0      26        0.0%
BANK11              50      0       0      27        0.0%
BITSFR26             0      0       0      27        0.0%
SFR26                0      0       0      27        0.0%
BITSFR27             0      0       0      28        0.0%
SFR27                0      0       0      28        0.0%
ABS                  0      0       0      28        0.0%
BITBANK12           50      0       0      29        0.0%
BITSFR28             0      0       0      29        0.0%
SFR28                0      0       0      29        0.0%
BANK12              50      0       0      30        0.0%
BITSFR29             0      0       0      30        0.0%
SFR29                0      0       0      30        0.0%
BITBANK13           50      0       0      31        0.0%
BITSFR30             0      0       0      31        0.0%
SFR30                0      0       0      31        0.0%
BANK13              50      0       0      32        0.0%
BITSFR31             0      0       0      32        0.0%
SFR31                0      0       0      32        0.0%
BITBANK14           50      0       0      33        0.0%
BITSFR32             0      0       0      33        0.0%
SFR32                0      0       0      33        0.0%
BANK14              50      0       0      34        0.0%
BITSFR33             0      0       0      34        0.0%
SFR33                0      0       0      34        0.0%
BITBANK15           50      0       0      35        0.0%
BITSFR34             0      0       0      35        0.0%
SFR34                0      0       0      35        0.0%
BANK15              50      0       0      36        0.0%
BITSFR35             0      0       0      36        0.0%
SFR35                0      0       0      36        0.0%
BITBANK16           50      0       0      37        0.0%
BITSFR36             0      0       0      37        0.0%
SFR36                0      0       0      37        0.0%
BANK16              50      0       0      38        0.0%
BITSFR37             0      0       0      38        0.0%
SFR37                0      0       0      38        0.0%
BITBANK17           50      0       0      39        0.0%
BITSFR38             0      0       0      39        0.0%
SFR38                0      0       0      39        0.0%
BANK17              50      0       0      40        0.0%
BITSFR39             0      0       0      40        0.0%
SFR39                0      0       0      40        0.0%
BITBANK18           50      0       0      41        0.0%
BITSFR40             0      0       0      41        0.0%
SFR40                0      0       0      41        0.0%
BANK18              50      0       0      42        0.0%
BITSFR41             0      0       0      42        0.0%
SFR41                0      0       0      42        0.0%
BITBANK19           50      0       0      43        0.0%
BITSFR42             0      0       0      43        0.0%
SFR42                0      0       0      43        0.0%
BANK19              50      0       0      44        0.0%
BITSFR43             0      0       0      44        0.0%
SFR43                0      0       0      44        0.0%
BITBANK20           50      0       0      45        0.0%
BITSFR44             0      0       0      45        0.0%
SFR44                0      0       0      45        0.0%
BANK20              50      0       0      46        0.0%
BITSFR45             0      0       0      46        0.0%
SFR45                0      0       0      46        0.0%
BITBANK21           50      0       0      47        0.0%
BITSFR46             0      0       0      47        0.0%
SFR46                0      0       0      47        0.0%
BANK21              50      0       0      48        0.0%
BITSFR47             0      0       0      48        0.0%
SFR47                0      0       0      48        0.0%
BITBANK22           50      0       0      49        0.0%
BITSFR48             0      0       0      49        0.0%
SFR48                0      0       0      49        0.0%
BANK22              50      0       0      50        0.0%
BITSFR49             0      0       0      50        0.0%
SFR49                0      0       0      50        0.0%
BITBANK23           50      0       0      51        0.0%
BITSFR50             0      0       0      51        0.0%
SFR50                0      0       0      51        0.0%
BANK23              50      0       0      52        0.0%
BITSFR51             0      0       0      52        0.0%
SFR51                0      0       0      52        0.0%
BITBANK24           50      0       0      53        0.0%
BITSFR52             0      0       0      53        0.0%
SFR52                0      0       0      53        0.0%
BANK24              50      0       0      54        0.0%
BITSFR53             0      0       0      54        0.0%
SFR53                0      0       0      54        0.0%
BITBANK25           50      0       0      55        0.0%
BITSFR54             0      0       0      55        0.0%
SFR54                0      0       0      55        0.0%
BANK25              50      0       0      56        0.0%
BITSFR55             0      0       0      56        0.0%
SFR55                0      0       0      56        0.0%
BITBANK26           50      0       0      57        0.0%
BITSFR56             0      0       0      57        0.0%
SFR56                0      0       0      57        0.0%
BANK26              50      0       0      58        0.0%
BITSFR57             0      0       0      58        0.0%
SFR57                0      0       0      58        0.0%
BITSFR58             0      0       0      59        0.0%
SFR58                0      0       0      59        0.0%
DATA                 0      0       0      59        0.0%
BITBANK27           50      0       0      60        0.0%
BITSFR59             0      0       0      60        0.0%
SFR59                0      0       0      60        0.0%
BANK27              50      0       0      61        0.0%
BITSFR60             0      0       0      61        0.0%
SFR60                0      0       0      61        0.0%
BITBANK28           50      0       0      62        0.0%
BITSFR61             0      0       0      62        0.0%
SFR61                0      0       0      62        0.0%
BANK28              50      0       0      63        0.0%
BITSFR62             0      0       0      63        0.0%
SFR62                0      0       0      63        0.0%
BITBANK29           50      0       0      64        0.0%
BITSFR63             0      0       0      64        0.0%
SFR63                0      0       0      64        0.0%
BANK29              50      0       0      65        0.0%
BITBANK30           50      0       0      66        0.0%
BANK30              50      0       0      67        0.0%
BITBANK31           50      0       0      68        0.0%
BANK31              50      0       0      69        0.0%
BITBANK32           50      0       0      70        0.0%
BANK32              50      0       0      71        0.0%
BITBANK33           50      0       0      72        0.0%
BANK33              50      0       0      73        0.0%
BITBANK34           50      0       0      74        0.0%
BANK34              50      0       0      75        0.0%
BITBANK35           50      0       0      76        0.0%
BANK35              50      0       0      77        0.0%
BITBANK36           50      0       0      78        0.0%
BANK36              50      0       0      79        0.0%
BITBANK37           50      0       0      80        0.0%
BANK37              50      0       0      81        0.0%
BITBANK38           50      0       0      82        0.0%
BANK38              50      0       0      83        0.0%
BITBANK39           50      0       0      84        0.0%
BANK39              50      0       0      85        0.0%
BITBANK40           50      0       0      86        0.0%
BANK40              50      0       0      87        0.0%
BITBANK41           50      0       0      88        0.0%
BANK41              50      0       0      89        0.0%
BITBANK42           50      0       0      90        0.0%
BANK42              50      0       0      91        0.0%
BITBANK43           50      0       0      92        0.0%
BANK43              50      0       0      93        0.0%
BITBANK44           50      0       0      94        0.0%
BANK44              50      0       0      95        0.0%
BITBANK45           50      0       0      96        0.0%
BANK45              50      0       0      97        0.0%
BITBANK46           50      0       0      98        0.0%
BANK46              50      0       0      99        0.0%
BITBANK47           50      0       0     100        0.0%
BANK47              50      0       0     101        0.0%
BITBANK48           50      0       0     102        0.0%
BANK48              50      0       0     103        0.0%
BITBANK49           50      0       0     104        0.0%
BANK49              50      0       0     105        0.0%
BITBANK50           50      0       0     106        0.0%
BANK50              50      0       0     107        0.0%


Microchip Technology PIC Macro Assembler V1.42 build -159332390 
Symbol Table                                                                                   Tue Oct 24 18:59:05 2017

                    __CFG_CP$OFF 0000                               l31 0678                    servoRotate0@i 0071  
                    __CFG_LVP$ON 0000                      __CFG_ZCD$ON 0000                              l204 06B6  
                            l213 0683                              l225 068E                              l233 079F  
                            l219 06A5                              l173 070F                              l157 0735  
                            l165 075C                              l191 07D7                              l184 07C2  
                            l193 07DF                              l195 07E7                              l188 07C6  
                            l197 07EF                              l189 07CE                              l902 07F9  
                            _GIE 005F                     __CFG_CPD$OFF 0000                              u707 072C  
                            u717 06FE                              u727 0706                              u657 0772  
                            u667 0779                              u677 074B                              u687 0753  
                            u697 0725                     __CFG_BORV$LO 0000                              wreg 0009  
                 servoRotate30@i 0071                   servoRotate90@i 0071     ADC_conversion_results@result 0072  
                           l1110 0790                             l1122 079C                             l1114 0794  
                           l1106 078C                             l1118 0798                             l1048 06DA  
                           STR_1 0826                             STR_2 0800                             _LATA 0016  
                           _LATB 0017                             _LATC 0018                             _WPUA 1F39  
                           _WPUB 1F44                             _WPUC 1F4F                     __CFG_WRT$OFF 0000  
                  __CFG_FCMEN$ON 0000                             _main 0784                             fsr0h 0005  
                           indf0 0000                             fsr0l 0004                             btemp 007E  
               __end_of_ADC_Init 06D6                    __CFG_BOREN$ON 0000                             start 0003  
                servoRotate120@i 0071                  ??_servoRotate30 0070                  ??_servoRotate90 0070  
                  __CFG_CSWEN$ON 0000                    __CFG_MCLRE$ON 0000                    ?_EUSART_Write 0070  
                          _ADACT 0099                            _ADCAP 009B                            ?_main 0070  
                          _ADPCH 009E                            _ADREF 009A                            _ADPRE 009C  
                  __CFG_WDTE$OFF 0000                            _OSCEN 0891                            _PORTB 000D  
                          _PORTC 000E                            _TRISA 0011                            _TRISB 0012  
                          _TRISC 0013                            _RXPPS 1ECB                            _putch 066B  
               ??_sendADCResults 0074                            status 0003                            wtemp0 007E  
               ??_servoRotate120 0070                     ?_receive_msg 0070                  __initialization 07FD  
                   __end_of_main 07BF                   ??_EUSART_Write 0070                           ??_main 0079  
                         _ADCON0 0093                           _ADCON1 0094                           _ADCON2 0095  
                         _ADCON3 0096                           _ADRESH 008D                           _ADRESL 008C  
                         _ADSTAT 0097                           _ANSELA 1F38                           ?_putch 0070  
                         _ANSELB 1F43                           _ANSELC 1F4E               __CFG_RSTOSC$HFINT1 0000  
                         _RC1REG 0119                           _RC1STA 011D                           _RC3PPS 1F23  
                         _RC6PPS 1F26                   __CFG_WDTCCS$SC 0000                           _OSCFRQ 0893  
                         _TX1REG 011A                           _TX1STA 011E                   __CFG_PWRTE$OFF 0000  
                   ?_set_receive 0070                   __CFG_STVREN$ON 0000                           _printf 06D6  
                   ?_sensorReset 0070                        ?_ADC_Init 0070          __end_of__initialization 07FD  
                 __pcstackCOMMON 0070                    __end_of_putch 0670                       ??_ADC_Init 0070  
       ??_ADC_conversion_results 0072            sendADCResults@results 0074                          ??_putch 0071  
           __end_of_EUSART_Write 067F                       __pmaintext 0784             __size_of_receive_msg 003E  
                __CFG_PPS1WAY$ON 0000                          ?_printf 0072                          _SP1BRGH 011C  
                        _SP1BRGL 011B                          _OSCCON1 088D                          _OSCCON3 088F  
                        _OSCSTAT 0890                          _OSCTUNE 0892                          _PPSLOCK 1E8F  
          __end_of_servoRotate30 075C            __end_of_servoRotate90 0784             __CFG_SCANE$available 0000  
           __size_of_set_receive 0007                          __ptext1 075C                          __ptext2 0735  
                        __ptext3 070F                          __ptext4 06AF                          __ptext5 06F1  
                        __ptext6 069E                          __ptext7 06D6                          __ptext8 066B  
                        __ptext9 0677                  __size_of_printf 001B             __size_of_sensorReset 0013  
__size_of_ADC_conversion_results 000F                          main@msg 007A             end_of_initialization 07FD  
                  ?_servoRotate0 0070                          printf@c 0078                          printf@f 0072  
                     _sensorPing 069E            __CFG_WDTCPS$WDTCPS_31 0000                        _PORTCbits 000E  
                      _TRISAbits 0011            __size_of_EUSART_Write 0008                __size_of_ADC_Init 0014  
               __CFG_FEXTOSC$OFF 0000                   ??_servoRotate0 0070           _ADC_conversion_results 067F  
        __size_of_sendADCResults 0010          __size_of_servoRotate120 0026                     _EUSART_Write 0677  
                 __end_of_printf 06F1              start_initialization 07FD                      putch@txData 0071  
               __CFG_LPBOREN$OFF 0000                      ?_sensorPing 0070                         ??_printf 0074  
                      ___latbits 0004                    ??_receive_msg 0070                         _BAUD1CON 011F  
                       _ADC_Init 06C2             __end_of_servoRotate0 070F                   __size_of_putch 0005  
            __size_of_sensorPing 0011                         _PIR3bits 070F                    ??_set_receive 0070  
                 _sendADCResults 068E              __end_of_receive_msg 07FD                   _servoRotate120 070F  
                  ??_sensorReset 0079           __size_of_servoRotate30 0027           __size_of_servoRotate90 0028  
        ?_ADC_conversion_results 0070           __end_of_sendADCResults 069E           __end_of_servoRotate120 0735  
            __end_of_set_receive 0677                       _ANSELAbits 1F38              __end_of_sensorReset 06C2  
                       __ptext10 068E                         __ptext11 067F                         __ptext12 07BF  
                       __ptext13 0670                         __ptext14 06C2   __end_of_ADC_conversion_results 068E  
                  __size_of_main 003B             __CFG_WDTCWS$WDTCWS_7 0000                      _receive_msg 07BF  
                ?_sendADCResults 0070                       _RC1STAbits 011D                  ?_servoRotate120 0070  
                  _servoRotate30 0735                    _servoRotate90 075C                     ??_sensorPing 0079  
          __size_of_servoRotate0 001E               receive_msg@results 0071               __end_of_sensorPing 06AF  
              __CFG_CLKOUTEN$OFF 0000                      _PPSLOCKbits 1E8F                   ?_servoRotate30 0070  
                 ?_servoRotate90 0070                     _servoRotate0 06F1                      _set_receive 0670  
                       printf@ap 0077                    __pstringtext1 0800                    __pstringtext2 0826  
                  __pstringtext3 0000                      _sensorReset 06AF               EUSART_Write@txData 0070  
